
Projeto_Final.elf:     file format elf32-avr

Sections:
Idx Name          Size      VMA       LMA       File off  Algn
  0 .data         000000b0  00800100  00000e88  00000f1c  2**0
                  CONTENTS, ALLOC, LOAD, DATA
  1 .text         00000e88  00000000  00000000  00000094  2**1
                  CONTENTS, ALLOC, LOAD, READONLY, CODE
  2 .bss          00000207  008001b0  008001b0  00000fcc  2**0
                  ALLOC
  3 .comment      00000030  00000000  00000000  00000fcc  2**0
                  CONTENTS, READONLY
  4 .note.gnu.avr.deviceinfo 00000040  00000000  00000000  00000ffc  2**2
                  CONTENTS, READONLY
  5 .debug_aranges 000000e0  00000000  00000000  0000103c  2**0
                  CONTENTS, READONLY, DEBUGGING
  6 .debug_info   00001ec3  00000000  00000000  0000111c  2**0
                  CONTENTS, READONLY, DEBUGGING
  7 .debug_abbrev 000009d6  00000000  00000000  00002fdf  2**0
                  CONTENTS, READONLY, DEBUGGING
  8 .debug_line   00000cba  00000000  00000000  000039b5  2**0
                  CONTENTS, READONLY, DEBUGGING
  9 .debug_frame  00000388  00000000  00000000  00004670  2**2
                  CONTENTS, READONLY, DEBUGGING
 10 .debug_str    00000636  00000000  00000000  000049f8  2**0
                  CONTENTS, READONLY, DEBUGGING
 11 .debug_loc    00000c9e  00000000  00000000  0000502e  2**0
                  CONTENTS, READONLY, DEBUGGING
 12 .debug_ranges 000000e0  00000000  00000000  00005ccc  2**0
                  CONTENTS, READONLY, DEBUGGING

Disassembly of section .text:

00000000 <__vectors>:
   0:	0c 94 2b 01 	jmp	0x256	; 0x256 <__ctors_end>
   4:	0c 94 07 03 	jmp	0x60e	; 0x60e <__vector_1>
   8:	0c 94 3b 03 	jmp	0x676	; 0x676 <__vector_2>
   c:	0c 94 70 03 	jmp	0x6e0	; 0x6e0 <__vector_3>
  10:	0c 94 48 01 	jmp	0x290	; 0x290 <__bad_interrupt>
  14:	0c 94 48 01 	jmp	0x290	; 0x290 <__bad_interrupt>
  18:	0c 94 48 01 	jmp	0x290	; 0x290 <__bad_interrupt>
  1c:	0c 94 a9 04 	jmp	0x952	; 0x952 <__vector_7>
  20:	0c 94 48 01 	jmp	0x290	; 0x290 <__bad_interrupt>
  24:	0c 94 48 01 	jmp	0x290	; 0x290 <__bad_interrupt>
  28:	0c 94 48 01 	jmp	0x290	; 0x290 <__bad_interrupt>
  2c:	0c 94 48 01 	jmp	0x290	; 0x290 <__bad_interrupt>
  30:	0c 94 48 01 	jmp	0x290	; 0x290 <__bad_interrupt>
  34:	0c 94 48 01 	jmp	0x290	; 0x290 <__bad_interrupt>
  38:	0c 94 48 01 	jmp	0x290	; 0x290 <__bad_interrupt>
  3c:	0c 94 48 01 	jmp	0x290	; 0x290 <__bad_interrupt>
  40:	0c 94 48 01 	jmp	0x290	; 0x290 <__bad_interrupt>
  44:	0c 94 48 01 	jmp	0x290	; 0x290 <__bad_interrupt>
  48:	0c 94 7d 01 	jmp	0x2fa	; 0x2fa <__vector_18>
  4c:	0c 94 48 01 	jmp	0x290	; 0x290 <__bad_interrupt>
  50:	0c 94 48 01 	jmp	0x290	; 0x290 <__bad_interrupt>
  54:	0c 94 48 01 	jmp	0x290	; 0x290 <__bad_interrupt>
  58:	0c 94 48 01 	jmp	0x290	; 0x290 <__bad_interrupt>
  5c:	0c 94 48 01 	jmp	0x290	; 0x290 <__bad_interrupt>
  60:	0c 94 48 01 	jmp	0x290	; 0x290 <__bad_interrupt>
  64:	0c 94 48 01 	jmp	0x290	; 0x290 <__bad_interrupt>
  68:	7b 04       	cpc	r7, r11
  6a:	82 04       	cpc	r8, r2
  6c:	87 04       	cpc	r8, r7
  6e:	8d 04       	cpc	r8, r13
  70:	91 04       	cpc	r9, r1
  72:	97 04       	cpc	r9, r7
  74:	9b 04       	cpc	r9, r11

00000076 <CHARSET>:
  76:	00 00 00 00 00 00 00 5f 00 00 00 07 00 07 00 14     ......._........
  86:	7f 14 7f 14 24 2a 7f 2a 12 23 13 08 64 62 36 49     ....$*.*.#..db6I
  96:	55 22 50 00 05 03 00 00 00 1c 22 41 00 00 41 22     U"P......."A..A"
  a6:	1c 00 14 08 3e 08 14 08 08 3e 08 08 00 50 30 00     ....>....>...P0.
  b6:	00 08 08 08 08 08 00 60 60 00 00 20 10 08 04 02     .......``.. ....
  c6:	3e 51 49 45 3e 00 42 7f 40 00 42 61 51 49 46 21     >QIE>.B.@.BaQIF!
  d6:	41 45 4b 31 18 14 12 7f 10 27 45 45 45 39 3c 4a     AEK1.....'EEE9<J
  e6:	49 49 30 01 71 09 05 03 36 49 49 49 36 06 49 49     II0.q...6III6.II
  f6:	29 1e 00 36 36 00 00 00 56 36 00 00 08 14 22 41     )..66...V6...."A
 106:	00 14 14 14 14 14 00 41 22 14 08 02 01 51 09 06     .......A"....Q..
 116:	32 49 79 41 3e 7e 11 11 11 7e 7f 49 49 49 36 3e     2IyA>~...~.III6>
 126:	41 41 41 22 7f 41 41 22 1c 7f 49 49 49 41 7f 09     AAA".AA"..IIIA..
 136:	09 09 01 3e 41 49 49 7a 7f 08 08 08 7f 00 41 7f     ...>AIIz......A.
 146:	41 00 20 40 41 3f 01 7f 08 14 22 41 7f 40 40 40     A. @A?...."A.@@@
 156:	40 7f 02 0c 02 7f 7f 04 08 10 7f 3e 41 41 41 3e     @..........>AAA>
 166:	7f 09 09 09 06 3e 41 51 21 5e 7f 09 19 29 46 46     .....>AQ!^...)FF
 176:	49 49 49 31 01 01 7f 01 01 3f 40 40 40 3f 1f 20     III1.....?@@@?. 
 186:	40 20 1f 3f 40 38 40 3f 63 14 08 14 63 07 08 70     @ .?@8@?c...c..p
 196:	08 07 61 51 49 45 43 00 7f 41 41 00 02 04 08 10     ..aQIEC..AA.....
 1a6:	20 00 41 41 7f 00 04 02 01 02 04 40 40 40 40 40      .AA.......@@@@@
 1b6:	00 01 02 04 00 20 54 54 54 78 7f 48 44 44 38 38     ..... TTTx.HDD88
 1c6:	44 44 44 20 38 44 44 48 7f 38 54 54 54 18 08 7e     DDD 8DDH.8TTT..~
 1d6:	09 01 02 0c 52 52 52 3e 7f 08 04 04 78 00 44 7d     ....RRR>....x.D}
 1e6:	40 00 20 40 44 3d 00 7f 10 28 44 00 00 41 7f 40     @. @D=...(D..A.@
 1f6:	00 7c 04 18 04 78 7c 08 04 04 78 38 44 44 44 38     .|...x|...x8DDD8
 206:	7c 14 14 14 08 08 14 14 18 7c 7c 08 04 04 08 48     |........||....H
 216:	54 54 54 20 04 3f 44 40 20 3c 40 40 20 7c 1c 20     TTT .?D@ <@@ |. 
 226:	40 20 1c 3c 40 30 40 3c 44 28 10 28 44 0c 50 50     @ .<@0@<D(.(D.PP
 236:	50 3c 44 64 54 4c 44 00 08 36 41 00 00 00 7f 00     P<DdTLD..6A.....
 246:	00 00 41 36 08 00 10 08 08 10 08 00 00 00 00 00     ..A6............

00000256 <__ctors_end>:
 256:	11 24       	eor	r1, r1
 258:	1f be       	out	0x3f, r1	; 63
 25a:	cf ef       	ldi	r28, 0xFF	; 255
 25c:	d8 e0       	ldi	r29, 0x08	; 8
 25e:	de bf       	out	0x3e, r29	; 62
 260:	cd bf       	out	0x3d, r28	; 61

00000262 <__do_copy_data>:
 262:	11 e0       	ldi	r17, 0x01	; 1
 264:	a0 e0       	ldi	r26, 0x00	; 0
 266:	b1 e0       	ldi	r27, 0x01	; 1
 268:	e8 e8       	ldi	r30, 0x88	; 136
 26a:	fe e0       	ldi	r31, 0x0E	; 14
 26c:	02 c0       	rjmp	.+4      	; 0x272 <__do_copy_data+0x10>
 26e:	05 90       	lpm	r0, Z+
 270:	0d 92       	st	X+, r0
 272:	a0 3b       	cpi	r26, 0xB0	; 176
 274:	b1 07       	cpc	r27, r17
 276:	d9 f7       	brne	.-10     	; 0x26e <__do_copy_data+0xc>

00000278 <__do_clear_bss>:
 278:	23 e0       	ldi	r18, 0x03	; 3
 27a:	a0 eb       	ldi	r26, 0xB0	; 176
 27c:	b1 e0       	ldi	r27, 0x01	; 1
 27e:	01 c0       	rjmp	.+2      	; 0x282 <.do_clear_bss_start>

00000280 <.do_clear_bss_loop>:
 280:	1d 92       	st	X+, r1

00000282 <.do_clear_bss_start>:
 282:	a7 3b       	cpi	r26, 0xB7	; 183
 284:	b2 07       	cpc	r27, r18
 286:	e1 f7       	brne	.-8      	; 0x280 <.do_clear_bss_loop>
 288:	0e 94 0c 05 	call	0xa18	; 0xa18 <main>
 28c:	0c 94 42 07 	jmp	0xe84	; 0xe84 <_exit>

00000290 <__bad_interrupt>:
 290:	0c 94 00 00 	jmp	0	; 0x0 <__vectors>

00000294 <define_porcentagem_PWM>:
// Função para recepção de um frame de 5 a 8 bits
unsigned char USART_Receive(void)
{
	while(!(UCSR0A & (1<<RXC0))); // Espera o dado ser recebido
	return UDR0; // Lê o dado recebido e retorna
}
 294:	80 91 b2 03 	lds	r24, 0x03B2	; 0x8003b2 <min>
 298:	89 31       	cpi	r24, 0x19	; 25
 29a:	89 f0       	breq	.+34     	; 0x2be <define_porcentagem_PWM+0x2a>
 29c:	2c f4       	brge	.+10     	; 0x2a8 <define_porcentagem_PWM+0x14>
 29e:	88 23       	and	r24, r24
 2a0:	41 f0       	breq	.+16     	; 0x2b2 <define_porcentagem_PWM+0x1e>
 2a2:	8d 30       	cpi	r24, 0x0D	; 13
 2a4:	49 f0       	breq	.+18     	; 0x2b8 <define_porcentagem_PWM+0x24>
 2a6:	08 95       	ret
 2a8:	85 32       	cpi	r24, 0x25	; 37
 2aa:	61 f0       	breq	.+24     	; 0x2c4 <define_porcentagem_PWM+0x30>
 2ac:	81 33       	cpi	r24, 0x31	; 49
 2ae:	69 f0       	breq	.+26     	; 0x2ca <define_porcentagem_PWM+0x36>
 2b0:	08 95       	ret
 2b2:	83 e3       	ldi	r24, 0x33	; 51
 2b4:	87 bd       	out	0x27, r24	; 39
 2b6:	08 95       	ret
 2b8:	86 e6       	ldi	r24, 0x66	; 102
 2ba:	87 bd       	out	0x27, r24	; 39
 2bc:	08 95       	ret
 2be:	89 e9       	ldi	r24, 0x99	; 153
 2c0:	87 bd       	out	0x27, r24	; 39
 2c2:	08 95       	ret
 2c4:	8c ec       	ldi	r24, 0xCC	; 204
 2c6:	87 bd       	out	0x27, r24	; 39
 2c8:	08 95       	ret
 2ca:	8a ef       	ldi	r24, 0xFA	; 250
 2cc:	87 bd       	out	0x27, r24	; 39
 2ce:	08 95       	ret

000002d0 <USART_Init>:
 2d0:	90 93 c5 00 	sts	0x00C5, r25	; 0x8000c5 <__TEXT_REGION_LENGTH__+0x7f80c5>
 2d4:	80 93 c4 00 	sts	0x00C4, r24	; 0x8000c4 <__TEXT_REGION_LENGTH__+0x7f80c4>
 2d8:	88 e9       	ldi	r24, 0x98	; 152
 2da:	80 93 c1 00 	sts	0x00C1, r24	; 0x8000c1 <__TEXT_REGION_LENGTH__+0x7f80c1>
 2de:	8e e0       	ldi	r24, 0x0E	; 14
 2e0:	80 93 c2 00 	sts	0x00C2, r24	; 0x8000c2 <__TEXT_REGION_LENGTH__+0x7f80c2>
 2e4:	8f ef       	ldi	r24, 0xFF	; 255
 2e6:	87 b9       	out	0x07, r24	; 7
 2e8:	08 95       	ret

000002ea <USART_Transmit>:
 2ea:	e0 ec       	ldi	r30, 0xC0	; 192
 2ec:	f0 e0       	ldi	r31, 0x00	; 0
 2ee:	90 81       	ld	r25, Z
 2f0:	95 ff       	sbrs	r25, 5
 2f2:	fd cf       	rjmp	.-6      	; 0x2ee <USART_Transmit+0x4>
 2f4:	80 93 c6 00 	sts	0x00C6, r24	; 0x8000c6 <__TEXT_REGION_LENGTH__+0x7f80c6>
 2f8:	08 95       	ret

000002fa <__vector_18>:
 2fa:	1f 92       	push	r1
 2fc:	0f 92       	push	r0
 2fe:	0f b6       	in	r0, 0x3f	; 63
 300:	0f 92       	push	r0
 302:	11 24       	eor	r1, r1
 304:	2f 93       	push	r18
 306:	3f 93       	push	r19
 308:	4f 93       	push	r20
 30a:	5f 93       	push	r21
 30c:	6f 93       	push	r22
 30e:	7f 93       	push	r23
 310:	8f 93       	push	r24
 312:	9f 93       	push	r25
 314:	af 93       	push	r26
 316:	bf 93       	push	r27
 318:	ef 93       	push	r30
 31a:	ff 93       	push	r31
 31c:	80 91 c6 00 	lds	r24, 0x00C6	; 0x8000c6 <__TEXT_REGION_LENGTH__+0x7f80c6>
 320:	80 53       	subi	r24, 0x30	; 48
 322:	80 93 b3 03 	sts	0x03B3, r24	; 0x8003b3 <tarefas>
 326:	81 e0       	ldi	r24, 0x01	; 1
 328:	80 93 b0 03 	sts	0x03B0, r24	; 0x8003b0 <tarefa_atual>
 32c:	0e 94 d2 05 	call	0xba4	; 0xba4 <nokia_lcd_clear>
 330:	61 e0       	ldi	r22, 0x01	; 1
 332:	80 e0       	ldi	r24, 0x00	; 0
 334:	91 e0       	ldi	r25, 0x01	; 1
 336:	0e 94 be 06 	call	0xd7c	; 0xd7c <nokia_lcd_write_string>
 33a:	6a e0       	ldi	r22, 0x0A	; 10
 33c:	80 e0       	ldi	r24, 0x00	; 0
 33e:	0e 94 d1 06 	call	0xda2	; 0xda2 <nokia_lcd_set_cursor>
 342:	61 e0       	ldi	r22, 0x01	; 1
 344:	8f e0       	ldi	r24, 0x0F	; 15
 346:	91 e0       	ldi	r25, 0x01	; 1
 348:	0e 94 be 06 	call	0xd7c	; 0xd7c <nokia_lcd_write_string>
 34c:	80 91 b3 03 	lds	r24, 0x03B3	; 0x8003b3 <tarefas>
 350:	4a e0       	ldi	r20, 0x0A	; 10
 352:	50 e0       	ldi	r21, 0x00	; 0
 354:	64 eb       	ldi	r22, 0xB4	; 180
 356:	73 e0       	ldi	r23, 0x03	; 3
 358:	90 e0       	ldi	r25, 0x00	; 0
 35a:	0e 94 02 07 	call	0xe04	; 0xe04 <itoa>
 35e:	64 e1       	ldi	r22, 0x14	; 20
 360:	83 e2       	ldi	r24, 0x23	; 35
 362:	0e 94 d1 06 	call	0xda2	; 0xda2 <nokia_lcd_set_cursor>
 366:	61 e0       	ldi	r22, 0x01	; 1
 368:	84 eb       	ldi	r24, 0xB4	; 180
 36a:	93 e0       	ldi	r25, 0x03	; 3
 36c:	0e 94 be 06 	call	0xd7c	; 0xd7c <nokia_lcd_write_string>
 370:	6e e1       	ldi	r22, 0x1E	; 30
 372:	80 e0       	ldi	r24, 0x00	; 0
 374:	0e 94 d1 06 	call	0xda2	; 0xda2 <nokia_lcd_set_cursor>
 378:	61 e0       	ldi	r22, 0x01	; 1
 37a:	8b e1       	ldi	r24, 0x1B	; 27
 37c:	91 e0       	ldi	r25, 0x01	; 1
 37e:	0e 94 be 06 	call	0xd7c	; 0xd7c <nokia_lcd_write_string>
 382:	68 e2       	ldi	r22, 0x28	; 40
 384:	80 e0       	ldi	r24, 0x00	; 0
 386:	0e 94 d1 06 	call	0xda2	; 0xda2 <nokia_lcd_set_cursor>
 38a:	61 e0       	ldi	r22, 0x01	; 1
 38c:	80 e0       	ldi	r24, 0x00	; 0
 38e:	91 e0       	ldi	r25, 0x01	; 1
 390:	0e 94 be 06 	call	0xd7c	; 0xd7c <nokia_lcd_write_string>
 394:	0e 94 d6 06 	call	0xdac	; 0xdac <nokia_lcd_render>
 398:	80 91 b3 03 	lds	r24, 0x03B3	; 0x8003b3 <tarefas>
 39c:	90 e0       	ldi	r25, 0x00	; 0
 39e:	0e 94 75 01 	call	0x2ea	; 0x2ea <USART_Transmit>
 3a2:	ff 91       	pop	r31
 3a4:	ef 91       	pop	r30
 3a6:	bf 91       	pop	r27
 3a8:	af 91       	pop	r26
 3aa:	9f 91       	pop	r25
 3ac:	8f 91       	pop	r24
 3ae:	7f 91       	pop	r23
 3b0:	6f 91       	pop	r22
 3b2:	5f 91       	pop	r21
 3b4:	4f 91       	pop	r20
 3b6:	3f 91       	pop	r19
 3b8:	2f 91       	pop	r18
 3ba:	0f 90       	pop	r0
 3bc:	0f be       	out	0x3f, r0	; 63
 3be:	0f 90       	pop	r0
 3c0:	1f 90       	pop	r1
 3c2:	18 95       	reti

000003c4 <atualizaDisplay>:
	{
	}
}

// Função para atualização do display PCD8544-7
void atualizaDisplay(char entrada){
 3c4:	cf 93       	push	r28
 3c6:	c8 2f       	mov	r28, r24
	
	if (entrada == 'l') // Mensagem: Ligando o programa
 3c8:	8c 36       	cpi	r24, 0x6C	; 108
 3ca:	09 f0       	breq	.+2      	; 0x3ce <atualizaDisplay+0xa>
 3cc:	5b c0       	rjmp	.+182    	; 0x484 <__EEPROM_REGION_LENGTH__+0x84>
	{
		nokia_lcd_clear();
 3ce:	0e 94 d2 05 	call	0xba4	; 0xba4 <nokia_lcd_clear>
		nokia_lcd_write_string("--------------", 1);
 3d2:	61 e0       	ldi	r22, 0x01	; 1
 3d4:	80 e0       	ldi	r24, 0x00	; 0
 3d6:	91 e0       	ldi	r25, 0x01	; 1
 3d8:	0e 94 be 06 	call	0xd7c	; 0xd7c <nokia_lcd_write_string>
		nokia_lcd_set_cursor(0, 20);
 3dc:	64 e1       	ldi	r22, 0x14	; 20
 3de:	80 e0       	ldi	r24, 0x00	; 0
 3e0:	0e 94 d1 06 	call	0xda2	; 0xda2 <nokia_lcd_set_cursor>
		nokia_lcd_write_string("  Bem-vindo!!", 1);
 3e4:	61 e0       	ldi	r22, 0x01	; 1
 3e6:	86 e2       	ldi	r24, 0x26	; 38
 3e8:	91 e0       	ldi	r25, 0x01	; 1
 3ea:	0e 94 be 06 	call	0xd7c	; 0xd7c <nokia_lcd_write_string>
		nokia_lcd_set_cursor(0, 40);
 3ee:	68 e2       	ldi	r22, 0x28	; 40
 3f0:	80 e0       	ldi	r24, 0x00	; 0
 3f2:	0e 94 d1 06 	call	0xda2	; 0xda2 <nokia_lcd_set_cursor>
		nokia_lcd_write_string("--------------", 1);
 3f6:	61 e0       	ldi	r22, 0x01	; 1
 3f8:	80 e0       	ldi	r24, 0x00	; 0
 3fa:	91 e0       	ldi	r25, 0x01	; 1
 3fc:	0e 94 be 06 	call	0xd7c	; 0xd7c <nokia_lcd_write_string>
		nokia_lcd_render();
 400:	0e 94 d6 06 	call	0xdac	; 0xdac <nokia_lcd_render>
	#else
		//round up by default
		__ticks_dc = (uint32_t)(ceil(fabs(__tmp)));
	#endif

	__builtin_avr_delay_cycles(__ticks_dc);
 404:	2f ef       	ldi	r18, 0xFF	; 255
 406:	83 ed       	ldi	r24, 0xD3	; 211
 408:	90 e3       	ldi	r25, 0x30	; 48
 40a:	21 50       	subi	r18, 0x01	; 1
 40c:	80 40       	sbci	r24, 0x00	; 0
 40e:	90 40       	sbci	r25, 0x00	; 0
 410:	e1 f7       	brne	.-8      	; 0x40a <__EEPROM_REGION_LENGTH__+0xa>
 412:	00 c0       	rjmp	.+0      	; 0x414 <__EEPROM_REGION_LENGTH__+0x14>
 414:	00 00       	nop
		
		_delay_ms(1000);
		
		nokia_lcd_clear();
 416:	0e 94 d2 05 	call	0xba4	; 0xba4 <nokia_lcd_clear>
		nokia_lcd_write_string("--------------", 1);
 41a:	61 e0       	ldi	r22, 0x01	; 1
 41c:	80 e0       	ldi	r24, 0x00	; 0
 41e:	91 e0       	ldi	r25, 0x01	; 1
 420:	0e 94 be 06 	call	0xd7c	; 0xd7c <nokia_lcd_write_string>
		nokia_lcd_set_cursor(0, 10);
 424:	6a e0       	ldi	r22, 0x0A	; 10
 426:	80 e0       	ldi	r24, 0x00	; 0
 428:	0e 94 d1 06 	call	0xda2	; 0xda2 <nokia_lcd_set_cursor>
		nokia_lcd_write_string("   Tarefa", 1);
 42c:	61 e0       	ldi	r22, 0x01	; 1
 42e:	84 e3       	ldi	r24, 0x34	; 52
 430:	91 e0       	ldi	r25, 0x01	; 1
 432:	0e 94 be 06 	call	0xd7c	; 0xd7c <nokia_lcd_write_string>
		nokia_lcd_set_cursor(35, 20);
 436:	64 e1       	ldi	r22, 0x14	; 20
 438:	83 e2       	ldi	r24, 0x23	; 35
 43a:	0e 94 d1 06 	call	0xda2	; 0xda2 <nokia_lcd_set_cursor>
		itoa(tarefa_atual, snum, 10); // Funçaõ que converte tarefa_atual (int) em string
 43e:	80 91 b0 03 	lds	r24, 0x03B0	; 0x8003b0 <tarefa_atual>
 442:	4a e0       	ldi	r20, 0x0A	; 10
 444:	50 e0       	ldi	r21, 0x00	; 0
 446:	64 eb       	ldi	r22, 0xB4	; 180
 448:	73 e0       	ldi	r23, 0x03	; 3
 44a:	90 e0       	ldi	r25, 0x00	; 0
 44c:	0e 94 02 07 	call	0xe04	; 0xe04 <itoa>
		nokia_lcd_write_string(snum, 1);
 450:	61 e0       	ldi	r22, 0x01	; 1
 452:	84 eb       	ldi	r24, 0xB4	; 180
 454:	93 e0       	ldi	r25, 0x03	; 3
 456:	0e 94 be 06 	call	0xd7c	; 0xd7c <nokia_lcd_write_string>
		nokia_lcd_set_cursor(0, 30);
 45a:	6e e1       	ldi	r22, 0x1E	; 30
 45c:	80 e0       	ldi	r24, 0x00	; 0
 45e:	0e 94 d1 06 	call	0xda2	; 0xda2 <nokia_lcd_set_cursor>
		nokia_lcd_write_string(" Em Andamento", 1);
 462:	61 e0       	ldi	r22, 0x01	; 1
 464:	8e e3       	ldi	r24, 0x3E	; 62
 466:	91 e0       	ldi	r25, 0x01	; 1
 468:	0e 94 be 06 	call	0xd7c	; 0xd7c <nokia_lcd_write_string>
		nokia_lcd_set_cursor(0, 40);
 46c:	68 e2       	ldi	r22, 0x28	; 40
 46e:	80 e0       	ldi	r24, 0x00	; 0
 470:	0e 94 d1 06 	call	0xda2	; 0xda2 <nokia_lcd_set_cursor>
		nokia_lcd_write_string("--------------", 1);
 474:	61 e0       	ldi	r22, 0x01	; 1
 476:	80 e0       	ldi	r24, 0x00	; 0
 478:	91 e0       	ldi	r25, 0x01	; 1
 47a:	0e 94 be 06 	call	0xd7c	; 0xd7c <nokia_lcd_write_string>
		nokia_lcd_render();
 47e:	0e 94 d6 06 	call	0xdac	; 0xdac <nokia_lcd_render>
 482:	c3 c0       	rjmp	.+390    	; 0x60a <__EEPROM_REGION_LENGTH__+0x20a>
	}
	else if (entrada == 'd') // Mensagem: Desligando o programa
 484:	84 36       	cpi	r24, 0x64	; 100
 486:	49 f5       	brne	.+82     	; 0x4da <__EEPROM_REGION_LENGTH__+0xda>
	{
		nokia_lcd_clear();
 488:	0e 94 d2 05 	call	0xba4	; 0xba4 <nokia_lcd_clear>
		nokia_lcd_write_string("--------------", 1);
 48c:	61 e0       	ldi	r22, 0x01	; 1
 48e:	80 e0       	ldi	r24, 0x00	; 0
 490:	91 e0       	ldi	r25, 0x01	; 1
 492:	0e 94 be 06 	call	0xd7c	; 0xd7c <nokia_lcd_write_string>
		nokia_lcd_set_cursor(0, 20);
 496:	64 e1       	ldi	r22, 0x14	; 20
 498:	80 e0       	ldi	r24, 0x00	; 0
 49a:	0e 94 d1 06 	call	0xda2	; 0xda2 <nokia_lcd_set_cursor>
		nokia_lcd_write_string(" Desligando...", 1);
 49e:	61 e0       	ldi	r22, 0x01	; 1
 4a0:	8c e4       	ldi	r24, 0x4C	; 76
 4a2:	91 e0       	ldi	r25, 0x01	; 1
 4a4:	0e 94 be 06 	call	0xd7c	; 0xd7c <nokia_lcd_write_string>
		nokia_lcd_set_cursor(0, 40);
 4a8:	68 e2       	ldi	r22, 0x28	; 40
 4aa:	80 e0       	ldi	r24, 0x00	; 0
 4ac:	0e 94 d1 06 	call	0xda2	; 0xda2 <nokia_lcd_set_cursor>
		nokia_lcd_write_string("--------------", 1);
 4b0:	61 e0       	ldi	r22, 0x01	; 1
 4b2:	80 e0       	ldi	r24, 0x00	; 0
 4b4:	91 e0       	ldi	r25, 0x01	; 1
 4b6:	0e 94 be 06 	call	0xd7c	; 0xd7c <nokia_lcd_write_string>
		nokia_lcd_render();
 4ba:	0e 94 d6 06 	call	0xdac	; 0xdac <nokia_lcd_render>
 4be:	2f ef       	ldi	r18, 0xFF	; 255
 4c0:	83 ed       	ldi	r24, 0xD3	; 211
 4c2:	90 e3       	ldi	r25, 0x30	; 48
 4c4:	21 50       	subi	r18, 0x01	; 1
 4c6:	80 40       	sbci	r24, 0x00	; 0
 4c8:	90 40       	sbci	r25, 0x00	; 0
 4ca:	e1 f7       	brne	.-8      	; 0x4c4 <__EEPROM_REGION_LENGTH__+0xc4>
 4cc:	00 c0       	rjmp	.+0      	; 0x4ce <__EEPROM_REGION_LENGTH__+0xce>
 4ce:	00 00       	nop
		
		_delay_ms(1000);
		
		nokia_lcd_clear();
 4d0:	0e 94 d2 05 	call	0xba4	; 0xba4 <nokia_lcd_clear>
		nokia_lcd_render();
 4d4:	0e 94 d6 06 	call	0xdac	; 0xdac <nokia_lcd_render>
 4d8:	98 c0       	rjmp	.+304    	; 0x60a <__EEPROM_REGION_LENGTH__+0x20a>
		
	}
	else if (entrada == 'f') // Mensagem: Finalizando tarefa atual
 4da:	86 36       	cpi	r24, 0x66	; 102
 4dc:	b9 f5       	brne	.+110    	; 0x54c <__EEPROM_REGION_LENGTH__+0x14c>
	{
		nokia_lcd_clear();
 4de:	0e 94 d2 05 	call	0xba4	; 0xba4 <nokia_lcd_clear>
		nokia_lcd_write_string("--------------", 1);
 4e2:	61 e0       	ldi	r22, 0x01	; 1
 4e4:	80 e0       	ldi	r24, 0x00	; 0
 4e6:	91 e0       	ldi	r25, 0x01	; 1
 4e8:	0e 94 be 06 	call	0xd7c	; 0xd7c <nokia_lcd_write_string>
		nokia_lcd_set_cursor(0, 10);
 4ec:	6a e0       	ldi	r22, 0x0A	; 10
 4ee:	80 e0       	ldi	r24, 0x00	; 0
 4f0:	0e 94 d1 06 	call	0xda2	; 0xda2 <nokia_lcd_set_cursor>
		nokia_lcd_write_string("   Tarefa", 1);
 4f4:	61 e0       	ldi	r22, 0x01	; 1
 4f6:	84 e3       	ldi	r24, 0x34	; 52
 4f8:	91 e0       	ldi	r25, 0x01	; 1
 4fa:	0e 94 be 06 	call	0xd7c	; 0xd7c <nokia_lcd_write_string>
		nokia_lcd_set_cursor(35, 20);
 4fe:	64 e1       	ldi	r22, 0x14	; 20
 500:	83 e2       	ldi	r24, 0x23	; 35
 502:	0e 94 d1 06 	call	0xda2	; 0xda2 <nokia_lcd_set_cursor>
		itoa(tarefa_atual, snum, 10); // Funçaõ que converte tarefa_atual (int) em string
 506:	80 91 b0 03 	lds	r24, 0x03B0	; 0x8003b0 <tarefa_atual>
 50a:	4a e0       	ldi	r20, 0x0A	; 10
 50c:	50 e0       	ldi	r21, 0x00	; 0
 50e:	64 eb       	ldi	r22, 0xB4	; 180
 510:	73 e0       	ldi	r23, 0x03	; 3
 512:	90 e0       	ldi	r25, 0x00	; 0
 514:	0e 94 02 07 	call	0xe04	; 0xe04 <itoa>
		nokia_lcd_write_string(snum, 1);
 518:	61 e0       	ldi	r22, 0x01	; 1
 51a:	84 eb       	ldi	r24, 0xB4	; 180
 51c:	93 e0       	ldi	r25, 0x03	; 3
 51e:	0e 94 be 06 	call	0xd7c	; 0xd7c <nokia_lcd_write_string>
		nokia_lcd_set_cursor(0, 30);
 522:	6e e1       	ldi	r22, 0x1E	; 30
 524:	80 e0       	ldi	r24, 0x00	; 0
 526:	0e 94 d1 06 	call	0xda2	; 0xda2 <nokia_lcd_set_cursor>
		nokia_lcd_write_string("  Finalizada!", 1);
 52a:	61 e0       	ldi	r22, 0x01	; 1
 52c:	8b e5       	ldi	r24, 0x5B	; 91
 52e:	91 e0       	ldi	r25, 0x01	; 1
 530:	0e 94 be 06 	call	0xd7c	; 0xd7c <nokia_lcd_write_string>
		nokia_lcd_set_cursor(0, 40);
 534:	68 e2       	ldi	r22, 0x28	; 40
 536:	80 e0       	ldi	r24, 0x00	; 0
 538:	0e 94 d1 06 	call	0xda2	; 0xda2 <nokia_lcd_set_cursor>
		nokia_lcd_write_string("--------------", 1);
 53c:	61 e0       	ldi	r22, 0x01	; 1
 53e:	80 e0       	ldi	r24, 0x00	; 0
 540:	91 e0       	ldi	r25, 0x01	; 1
 542:	0e 94 be 06 	call	0xd7c	; 0xd7c <nokia_lcd_write_string>
		nokia_lcd_render();
 546:	0e 94 d6 06 	call	0xdac	; 0xdac <nokia_lcd_render>
 54a:	5f c0       	rjmp	.+190    	; 0x60a <__EEPROM_REGION_LENGTH__+0x20a>
	}
	else if (entrada == 'p') // Mensagem: Pausando o programa
 54c:	80 37       	cpi	r24, 0x70	; 112
 54e:	e1 f4       	brne	.+56     	; 0x588 <__EEPROM_REGION_LENGTH__+0x188>
	{
		nokia_lcd_clear();
 550:	0e 94 d2 05 	call	0xba4	; 0xba4 <nokia_lcd_clear>
		nokia_lcd_write_string("--------------", 1);
 554:	61 e0       	ldi	r22, 0x01	; 1
 556:	80 e0       	ldi	r24, 0x00	; 0
 558:	91 e0       	ldi	r25, 0x01	; 1
 55a:	0e 94 be 06 	call	0xd7c	; 0xd7c <nokia_lcd_write_string>
		nokia_lcd_set_cursor(0, 20);
 55e:	64 e1       	ldi	r22, 0x14	; 20
 560:	80 e0       	ldi	r24, 0x00	; 0
 562:	0e 94 d1 06 	call	0xda2	; 0xda2 <nokia_lcd_set_cursor>
		nokia_lcd_write_string("Tarefa Pausada", 1);
 566:	61 e0       	ldi	r22, 0x01	; 1
 568:	89 e6       	ldi	r24, 0x69	; 105
 56a:	91 e0       	ldi	r25, 0x01	; 1
 56c:	0e 94 be 06 	call	0xd7c	; 0xd7c <nokia_lcd_write_string>
		nokia_lcd_set_cursor(0, 40);
 570:	68 e2       	ldi	r22, 0x28	; 40
 572:	80 e0       	ldi	r24, 0x00	; 0
 574:	0e 94 d1 06 	call	0xda2	; 0xda2 <nokia_lcd_set_cursor>
		nokia_lcd_write_string("--------------", 1);
 578:	61 e0       	ldi	r22, 0x01	; 1
 57a:	80 e0       	ldi	r24, 0x00	; 0
 57c:	91 e0       	ldi	r25, 0x01	; 1
 57e:	0e 94 be 06 	call	0xd7c	; 0xd7c <nokia_lcd_write_string>
		nokia_lcd_render();
 582:	0e 94 d6 06 	call	0xdac	; 0xdac <nokia_lcd_render>
 586:	41 c0       	rjmp	.+130    	; 0x60a <__EEPROM_REGION_LENGTH__+0x20a>
		
	}
	else if (entrada == 'x') // Mensagem: Dados coletados durante as atividades
 588:	88 37       	cpi	r24, 0x78	; 120
 58a:	51 f4       	brne	.+20     	; 0x5a0 <__EEPROM_REGION_LENGTH__+0x1a0>
	{
		nokia_lcd_clear();
 58c:	0e 94 d2 05 	call	0xba4	; 0xba4 <nokia_lcd_clear>
		nokia_lcd_write_string(" T | hrs | min", 1);
 590:	61 e0       	ldi	r22, 0x01	; 1
 592:	88 e7       	ldi	r24, 0x78	; 120
 594:	91 e0       	ldi	r25, 0x01	; 1
 596:	0e 94 be 06 	call	0xd7c	; 0xd7c <nokia_lcd_write_string>
		nokia_lcd_render();
 59a:	0e 94 d6 06 	call	0xdac	; 0xdac <nokia_lcd_render>
 59e:	35 c0       	rjmp	.+106    	; 0x60a <__EEPROM_REGION_LENGTH__+0x20a>
			//}
		//}
	}
	else // Mensagem: Atividade atual em andamento
	{
		nokia_lcd_clear();
 5a0:	0e 94 d2 05 	call	0xba4	; 0xba4 <nokia_lcd_clear>
		nokia_lcd_write_string("--------------", 1);
 5a4:	61 e0       	ldi	r22, 0x01	; 1
 5a6:	80 e0       	ldi	r24, 0x00	; 0
 5a8:	91 e0       	ldi	r25, 0x01	; 1
 5aa:	0e 94 be 06 	call	0xd7c	; 0xd7c <nokia_lcd_write_string>
		nokia_lcd_set_cursor(0, 10);
 5ae:	6a e0       	ldi	r22, 0x0A	; 10
 5b0:	80 e0       	ldi	r24, 0x00	; 0
 5b2:	0e 94 d1 06 	call	0xda2	; 0xda2 <nokia_lcd_set_cursor>
		nokia_lcd_write_string("   Tarefa", 1);
 5b6:	61 e0       	ldi	r22, 0x01	; 1
 5b8:	84 e3       	ldi	r24, 0x34	; 52
 5ba:	91 e0       	ldi	r25, 0x01	; 1
 5bc:	0e 94 be 06 	call	0xd7c	; 0xd7c <nokia_lcd_write_string>
		nokia_lcd_set_cursor(35, 20);
 5c0:	64 e1       	ldi	r22, 0x14	; 20
 5c2:	83 e2       	ldi	r24, 0x23	; 35
 5c4:	0e 94 d1 06 	call	0xda2	; 0xda2 <nokia_lcd_set_cursor>
		itoa(entrada, snum, 10); // Funçaõ que converte entrada (int) em string
 5c8:	4a e0       	ldi	r20, 0x0A	; 10
 5ca:	50 e0       	ldi	r21, 0x00	; 0
 5cc:	64 eb       	ldi	r22, 0xB4	; 180
 5ce:	73 e0       	ldi	r23, 0x03	; 3
 5d0:	8c 2f       	mov	r24, r28
 5d2:	90 e0       	ldi	r25, 0x00	; 0
 5d4:	0e 94 02 07 	call	0xe04	; 0xe04 <itoa>
		nokia_lcd_write_string(snum, 1);
 5d8:	61 e0       	ldi	r22, 0x01	; 1
 5da:	84 eb       	ldi	r24, 0xB4	; 180
 5dc:	93 e0       	ldi	r25, 0x03	; 3
 5de:	0e 94 be 06 	call	0xd7c	; 0xd7c <nokia_lcd_write_string>
		nokia_lcd_set_cursor(0, 30);
 5e2:	6e e1       	ldi	r22, 0x1E	; 30
 5e4:	80 e0       	ldi	r24, 0x00	; 0
 5e6:	0e 94 d1 06 	call	0xda2	; 0xda2 <nokia_lcd_set_cursor>
		nokia_lcd_write_string(" Em Andamento", 1);
 5ea:	61 e0       	ldi	r22, 0x01	; 1
 5ec:	8e e3       	ldi	r24, 0x3E	; 62
 5ee:	91 e0       	ldi	r25, 0x01	; 1
 5f0:	0e 94 be 06 	call	0xd7c	; 0xd7c <nokia_lcd_write_string>
		nokia_lcd_set_cursor(0, 40);
 5f4:	68 e2       	ldi	r22, 0x28	; 40
 5f6:	80 e0       	ldi	r24, 0x00	; 0
 5f8:	0e 94 d1 06 	call	0xda2	; 0xda2 <nokia_lcd_set_cursor>
		nokia_lcd_write_string("--------------", 1);
 5fc:	61 e0       	ldi	r22, 0x01	; 1
 5fe:	80 e0       	ldi	r24, 0x00	; 0
 600:	91 e0       	ldi	r25, 0x01	; 1
 602:	0e 94 be 06 	call	0xd7c	; 0xd7c <nokia_lcd_write_string>
		nokia_lcd_render();
 606:	0e 94 d6 06 	call	0xdac	; 0xdac <nokia_lcd_render>
	}
}
 60a:	cf 91       	pop	r28
 60c:	08 95       	ret

0000060e <__vector_1>:
	//return valor;
//}

// Interrupção externa 0, captura o Ligar/Desligar
ISR(INT0_vect)
{
 60e:	1f 92       	push	r1
 610:	0f 92       	push	r0
 612:	0f b6       	in	r0, 0x3f	; 63
 614:	0f 92       	push	r0
 616:	11 24       	eor	r1, r1
 618:	2f 93       	push	r18
 61a:	3f 93       	push	r19
 61c:	4f 93       	push	r20
 61e:	5f 93       	push	r21
 620:	6f 93       	push	r22
 622:	7f 93       	push	r23
 624:	8f 93       	push	r24
 626:	9f 93       	push	r25
 628:	af 93       	push	r26
 62a:	bf 93       	push	r27
 62c:	ef 93       	push	r30
 62e:	ff 93       	push	r31
	if(pausa == 1)
 630:	80 91 ad 03 	lds	r24, 0x03AD	; 0x8003ad <pausa>
 634:	81 30       	cpi	r24, 0x01	; 1
 636:	39 f4       	brne	.+14     	; 0x646 <__vector_1+0x38>
	{
		atualizaDisplay('l'); // Chamada de função - Mensagem: Ligando o programa
 638:	8c e6       	ldi	r24, 0x6C	; 108
 63a:	90 e0       	ldi	r25, 0x00	; 0
 63c:	0e 94 e2 01 	call	0x3c4	; 0x3c4 <atualizaDisplay>
		pausa = 0; // Inicia o Timer
 640:	10 92 ad 03 	sts	0x03AD, r1	; 0x8003ad <pausa>
 644:	07 c0       	rjmp	.+14     	; 0x654 <__vector_1+0x46>
	}
	else
	{
		atualizaDisplay('d'); // Chamada de função - Mensagem: Desligando o programa
 646:	84 e6       	ldi	r24, 0x64	; 100
 648:	90 e0       	ldi	r25, 0x00	; 0
 64a:	0e 94 e2 01 	call	0x3c4	; 0x3c4 <atualizaDisplay>
		pausa = 1; // Pausa o Timer
 64e:	81 e0       	ldi	r24, 0x01	; 1
 650:	80 93 ad 03 	sts	0x03AD, r24	; 0x8003ad <pausa>
	}
}
 654:	ff 91       	pop	r31
 656:	ef 91       	pop	r30
 658:	bf 91       	pop	r27
 65a:	af 91       	pop	r26
 65c:	9f 91       	pop	r25
 65e:	8f 91       	pop	r24
 660:	7f 91       	pop	r23
 662:	6f 91       	pop	r22
 664:	5f 91       	pop	r21
 666:	4f 91       	pop	r20
 668:	3f 91       	pop	r19
 66a:	2f 91       	pop	r18
 66c:	0f 90       	pop	r0
 66e:	0f be       	out	0x3f, r0	; 63
 670:	0f 90       	pop	r0
 672:	1f 90       	pop	r1
 674:	18 95       	reti

00000676 <__vector_2>:

// Interrupção externa 1, captura o Play/Pause
ISR(INT1_vect)
{
 676:	1f 92       	push	r1
 678:	0f 92       	push	r0
 67a:	0f b6       	in	r0, 0x3f	; 63
 67c:	0f 92       	push	r0
 67e:	11 24       	eor	r1, r1
 680:	2f 93       	push	r18
 682:	3f 93       	push	r19
 684:	4f 93       	push	r20
 686:	5f 93       	push	r21
 688:	6f 93       	push	r22
 68a:	7f 93       	push	r23
 68c:	8f 93       	push	r24
 68e:	9f 93       	push	r25
 690:	af 93       	push	r26
 692:	bf 93       	push	r27
 694:	ef 93       	push	r30
 696:	ff 93       	push	r31
	if(pausa == 1)
 698:	80 91 ad 03 	lds	r24, 0x03AD	; 0x8003ad <pausa>
 69c:	81 30       	cpi	r24, 0x01	; 1
 69e:	41 f4       	brne	.+16     	; 0x6b0 <__vector_2+0x3a>
	{
		atualizaDisplay(tarefa_atual); // Chamada de função - Mensagem: Atividade atual em andamento
 6a0:	80 91 b0 03 	lds	r24, 0x03B0	; 0x8003b0 <tarefa_atual>
 6a4:	90 e0       	ldi	r25, 0x00	; 0
 6a6:	0e 94 e2 01 	call	0x3c4	; 0x3c4 <atualizaDisplay>
		pausa = 0; // Dá play no Timer
 6aa:	10 92 ad 03 	sts	0x03AD, r1	; 0x8003ad <pausa>
 6ae:	07 c0       	rjmp	.+14     	; 0x6be <__vector_2+0x48>
	}
	else
	{
		atualizaDisplay('p'); // Chamada de função - Mensagem: Pausando o programa
 6b0:	80 e7       	ldi	r24, 0x70	; 112
 6b2:	90 e0       	ldi	r25, 0x00	; 0
 6b4:	0e 94 e2 01 	call	0x3c4	; 0x3c4 <atualizaDisplay>
		pausa = 1; // Pausa o Timer
 6b8:	81 e0       	ldi	r24, 0x01	; 1
 6ba:	80 93 ad 03 	sts	0x03AD, r24	; 0x8003ad <pausa>
	}
}
 6be:	ff 91       	pop	r31
 6c0:	ef 91       	pop	r30
 6c2:	bf 91       	pop	r27
 6c4:	af 91       	pop	r26
 6c6:	9f 91       	pop	r25
 6c8:	8f 91       	pop	r24
 6ca:	7f 91       	pop	r23
 6cc:	6f 91       	pop	r22
 6ce:	5f 91       	pop	r21
 6d0:	4f 91       	pop	r20
 6d2:	3f 91       	pop	r19
 6d4:	2f 91       	pop	r18
 6d6:	0f 90       	pop	r0
 6d8:	0f be       	out	0x3f, r0	; 63
 6da:	0f 90       	pop	r0
 6dc:	1f 90       	pop	r1
 6de:	18 95       	reti

000006e0 <__vector_3>:

// Interrupção 0 por mudança de pino, captura o Finalizar Tarefa
ISR(PCINT0_vect)
{
 6e0:	1f 92       	push	r1
 6e2:	0f 92       	push	r0
 6e4:	0f b6       	in	r0, 0x3f	; 63
 6e6:	0f 92       	push	r0
 6e8:	11 24       	eor	r1, r1
 6ea:	0f 93       	push	r16
 6ec:	1f 93       	push	r17
 6ee:	2f 93       	push	r18
 6f0:	3f 93       	push	r19
 6f2:	4f 93       	push	r20
 6f4:	5f 93       	push	r21
 6f6:	6f 93       	push	r22
 6f8:	7f 93       	push	r23
 6fa:	8f 93       	push	r24
 6fc:	9f 93       	push	r25
 6fe:	af 93       	push	r26
 700:	bf 93       	push	r27
 702:	cf 93       	push	r28
 704:	df 93       	push	r29
 706:	ef 93       	push	r30
 708:	ff 93       	push	r31
	if (pcint0_int == 0)
 70a:	80 91 b0 01 	lds	r24, 0x01B0	; 0x8001b0 <__data_end>
 70e:	81 11       	cpse	r24, r1
 710:	cc c0       	rjmp	.+408    	; 0x8aa <__DATA_REGION_LENGTH__+0xaa>
	{
		if (tarefa_atual == tarefas)
 712:	80 91 b0 03 	lds	r24, 0x03B0	; 0x8003b0 <tarefa_atual>
 716:	90 91 b3 03 	lds	r25, 0x03B3	; 0x8003b3 <tarefas>
 71a:	89 13       	cpse	r24, r25
 71c:	05 c0       	rjmp	.+10     	; 0x728 <__vector_3+0x48>
			//String minutos = to_string(min);
			//writeStringToEEPROM (horas);
			//writeStringToEEPROM (minutos);
			
			// Finaliza contagem
			atualizaDisplay('x'); // Chamada de função - Mensagem: Dados coletados durante as atividades
 71e:	88 e7       	ldi	r24, 0x78	; 120
 720:	90 e0       	ldi	r25, 0x00	; 0
 722:	0e 94 e2 01 	call	0x3c4	; 0x3c4 <atualizaDisplay>
 726:	bb c0       	rjmp	.+374    	; 0x89e <__DATA_REGION_LENGTH__+0x9e>
		}
		else
		{
			if (tarefa_atual == 1)
 728:	81 30       	cpi	r24, 0x01	; 1
 72a:	09 f0       	breq	.+2      	; 0x72e <__vector_3+0x4e>
 72c:	4e c0       	rjmp	.+156    	; 0x7ca <__vector_3+0xea>
			{
				int t1_hrs = hrs;
 72e:	00 91 af 03 	lds	r16, 0x03AF	; 0x8003af <hrs>
 732:	00 2e       	mov	r0, r16
 734:	00 0c       	add	r0, r0
 736:	11 0b       	sbc	r17, r17
				int t1_min = min;
 738:	c0 91 b2 03 	lds	r28, 0x03B2	; 0x8003b2 <min>
 73c:	0c 2e       	mov	r0, r28
 73e:	00 0c       	add	r0, r0
 740:	dd 0b       	sbc	r29, r29
				
				nokia_lcd_clear();
 742:	0e 94 d2 05 	call	0xba4	; 0xba4 <nokia_lcd_clear>
				nokia_lcd_write_string(" T | hrs | min", 1);
 746:	61 e0       	ldi	r22, 0x01	; 1
 748:	88 e7       	ldi	r24, 0x78	; 120
 74a:	91 e0       	ldi	r25, 0x01	; 1
 74c:	0e 94 be 06 	call	0xd7c	; 0xd7c <nokia_lcd_write_string>
				nokia_lcd_set_cursor(0, 10);
 750:	6a e0       	ldi	r22, 0x0A	; 10
 752:	80 e0       	ldi	r24, 0x00	; 0
 754:	0e 94 d1 06 	call	0xda2	; 0xda2 <nokia_lcd_set_cursor>
				itoa(tarefa_atual, snum, 10); // Funçaõ que converte tarefas (int) em string
 758:	80 91 b0 03 	lds	r24, 0x03B0	; 0x8003b0 <tarefa_atual>
 75c:	4a e0       	ldi	r20, 0x0A	; 10
 75e:	50 e0       	ldi	r21, 0x00	; 0
 760:	64 eb       	ldi	r22, 0xB4	; 180
 762:	73 e0       	ldi	r23, 0x03	; 3
 764:	90 e0       	ldi	r25, 0x00	; 0
 766:	0e 94 02 07 	call	0xe04	; 0xe04 <itoa>
				nokia_lcd_write_string(snum, 1);
 76a:	61 e0       	ldi	r22, 0x01	; 1
 76c:	84 eb       	ldi	r24, 0xB4	; 180
 76e:	93 e0       	ldi	r25, 0x03	; 3
 770:	0e 94 be 06 	call	0xd7c	; 0xd7c <nokia_lcd_write_string>
				nokia_lcd_set_cursor(25, 10);
 774:	6a e0       	ldi	r22, 0x0A	; 10
 776:	89 e1       	ldi	r24, 0x19	; 25
 778:	0e 94 d1 06 	call	0xda2	; 0xda2 <nokia_lcd_set_cursor>
				itoa(t1_hrs, snum, 10); // Funçaõ que converte tarefas (int) em string
 77c:	4a e0       	ldi	r20, 0x0A	; 10
 77e:	50 e0       	ldi	r21, 0x00	; 0
 780:	64 eb       	ldi	r22, 0xB4	; 180
 782:	73 e0       	ldi	r23, 0x03	; 3
 784:	c8 01       	movw	r24, r16
 786:	0e 94 02 07 	call	0xe04	; 0xe04 <itoa>
				nokia_lcd_write_string(snum, 1);
 78a:	61 e0       	ldi	r22, 0x01	; 1
 78c:	84 eb       	ldi	r24, 0xB4	; 180
 78e:	93 e0       	ldi	r25, 0x03	; 3
 790:	0e 94 be 06 	call	0xd7c	; 0xd7c <nokia_lcd_write_string>
				nokia_lcd_set_cursor(35, 10);
 794:	6a e0       	ldi	r22, 0x0A	; 10
 796:	83 e2       	ldi	r24, 0x23	; 35
 798:	0e 94 d1 06 	call	0xda2	; 0xda2 <nokia_lcd_set_cursor>
				itoa(t1_min, snum, 10); // Funçaõ que converte tarefas (int) em string
 79c:	4a e0       	ldi	r20, 0x0A	; 10
 79e:	50 e0       	ldi	r21, 0x00	; 0
 7a0:	64 eb       	ldi	r22, 0xB4	; 180
 7a2:	73 e0       	ldi	r23, 0x03	; 3
 7a4:	ce 01       	movw	r24, r28
 7a6:	0e 94 02 07 	call	0xe04	; 0xe04 <itoa>
				nokia_lcd_write_string(snum, 1);
 7aa:	61 e0       	ldi	r22, 0x01	; 1
 7ac:	84 eb       	ldi	r24, 0xB4	; 180
 7ae:	93 e0       	ldi	r25, 0x03	; 3
 7b0:	0e 94 be 06 	call	0xd7c	; 0xd7c <nokia_lcd_write_string>
				nokia_lcd_render();
 7b4:	0e 94 d6 06 	call	0xdac	; 0xdac <nokia_lcd_render>
 7b8:	2f ef       	ldi	r18, 0xFF	; 255
 7ba:	83 e2       	ldi	r24, 0x23	; 35
 7bc:	94 ef       	ldi	r25, 0xF4	; 244
 7be:	21 50       	subi	r18, 0x01	; 1
 7c0:	80 40       	sbci	r24, 0x00	; 0
 7c2:	90 40       	sbci	r25, 0x00	; 0
 7c4:	e1 f7       	brne	.-8      	; 0x7be <__vector_3+0xde>
 7c6:	00 c0       	rjmp	.+0      	; 0x7c8 <__vector_3+0xe8>
 7c8:	00 00       	nop
				_delay_ms(5000);
								
			}
			if (tarefa_atual == 2)
 7ca:	80 91 b0 03 	lds	r24, 0x03B0	; 0x8003b0 <tarefa_atual>
 7ce:	82 30       	cpi	r24, 0x02	; 2
 7d0:	09 f0       	breq	.+2      	; 0x7d4 <__vector_3+0xf4>
 7d2:	4e c0       	rjmp	.+156    	; 0x870 <__DATA_REGION_LENGTH__+0x70>
			{
				int t2_hrs = hrs;
 7d4:	00 91 af 03 	lds	r16, 0x03AF	; 0x8003af <hrs>
 7d8:	00 2e       	mov	r0, r16
 7da:	00 0c       	add	r0, r0
 7dc:	11 0b       	sbc	r17, r17
				int t2_min = min;
 7de:	c0 91 b2 03 	lds	r28, 0x03B2	; 0x8003b2 <min>
 7e2:	0c 2e       	mov	r0, r28
 7e4:	00 0c       	add	r0, r0
 7e6:	dd 0b       	sbc	r29, r29
				
				nokia_lcd_clear();
 7e8:	0e 94 d2 05 	call	0xba4	; 0xba4 <nokia_lcd_clear>
				nokia_lcd_write_string(" T | hrs | min", 1);
 7ec:	61 e0       	ldi	r22, 0x01	; 1
 7ee:	88 e7       	ldi	r24, 0x78	; 120
 7f0:	91 e0       	ldi	r25, 0x01	; 1
 7f2:	0e 94 be 06 	call	0xd7c	; 0xd7c <nokia_lcd_write_string>
				nokia_lcd_set_cursor(0, 10);
 7f6:	6a e0       	ldi	r22, 0x0A	; 10
 7f8:	80 e0       	ldi	r24, 0x00	; 0
 7fa:	0e 94 d1 06 	call	0xda2	; 0xda2 <nokia_lcd_set_cursor>
				itoa(tarefa_atual, snum, 10); // Funçaõ que converte tarefas (int) em string
 7fe:	80 91 b0 03 	lds	r24, 0x03B0	; 0x8003b0 <tarefa_atual>
 802:	4a e0       	ldi	r20, 0x0A	; 10
 804:	50 e0       	ldi	r21, 0x00	; 0
 806:	64 eb       	ldi	r22, 0xB4	; 180
 808:	73 e0       	ldi	r23, 0x03	; 3
 80a:	90 e0       	ldi	r25, 0x00	; 0
 80c:	0e 94 02 07 	call	0xe04	; 0xe04 <itoa>
				nokia_lcd_write_string(snum, 1);
 810:	61 e0       	ldi	r22, 0x01	; 1
 812:	84 eb       	ldi	r24, 0xB4	; 180
 814:	93 e0       	ldi	r25, 0x03	; 3
 816:	0e 94 be 06 	call	0xd7c	; 0xd7c <nokia_lcd_write_string>
				nokia_lcd_set_cursor(25, 10);
 81a:	6a e0       	ldi	r22, 0x0A	; 10
 81c:	89 e1       	ldi	r24, 0x19	; 25
 81e:	0e 94 d1 06 	call	0xda2	; 0xda2 <nokia_lcd_set_cursor>
				itoa(t2_hrs, snum, 10); // Funçaõ que converte tarefas (int) em string
 822:	4a e0       	ldi	r20, 0x0A	; 10
 824:	50 e0       	ldi	r21, 0x00	; 0
 826:	64 eb       	ldi	r22, 0xB4	; 180
 828:	73 e0       	ldi	r23, 0x03	; 3
 82a:	c8 01       	movw	r24, r16
 82c:	0e 94 02 07 	call	0xe04	; 0xe04 <itoa>
				nokia_lcd_write_string(snum, 1);
 830:	61 e0       	ldi	r22, 0x01	; 1
 832:	84 eb       	ldi	r24, 0xB4	; 180
 834:	93 e0       	ldi	r25, 0x03	; 3
 836:	0e 94 be 06 	call	0xd7c	; 0xd7c <nokia_lcd_write_string>
				nokia_lcd_set_cursor(35, 10);
 83a:	6a e0       	ldi	r22, 0x0A	; 10
 83c:	83 e2       	ldi	r24, 0x23	; 35
 83e:	0e 94 d1 06 	call	0xda2	; 0xda2 <nokia_lcd_set_cursor>
				itoa(t2_min, snum, 10); // Funçaõ que converte tarefas (int) em string
 842:	4a e0       	ldi	r20, 0x0A	; 10
 844:	50 e0       	ldi	r21, 0x00	; 0
 846:	64 eb       	ldi	r22, 0xB4	; 180
 848:	73 e0       	ldi	r23, 0x03	; 3
 84a:	ce 01       	movw	r24, r28
 84c:	0e 94 02 07 	call	0xe04	; 0xe04 <itoa>
				nokia_lcd_write_string(snum, 1);
 850:	61 e0       	ldi	r22, 0x01	; 1
 852:	84 eb       	ldi	r24, 0xB4	; 180
 854:	93 e0       	ldi	r25, 0x03	; 3
 856:	0e 94 be 06 	call	0xd7c	; 0xd7c <nokia_lcd_write_string>
				nokia_lcd_render();
 85a:	0e 94 d6 06 	call	0xdac	; 0xdac <nokia_lcd_render>
 85e:	2f ef       	ldi	r18, 0xFF	; 255
 860:	83 e2       	ldi	r24, 0x23	; 35
 862:	94 ef       	ldi	r25, 0xF4	; 244
 864:	21 50       	subi	r18, 0x01	; 1
 866:	80 40       	sbci	r24, 0x00	; 0
 868:	90 40       	sbci	r25, 0x00	; 0
 86a:	e1 f7       	brne	.-8      	; 0x864 <__DATA_REGION_LENGTH__+0x64>
 86c:	00 c0       	rjmp	.+0      	; 0x86e <__DATA_REGION_LENGTH__+0x6e>
 86e:	00 00       	nop
			//String horas = to_string(hrs);
			//String minutos = to_string(min);
			//writeStringToEEPROM (horas);
			//writeStringToEEPROM (minutos);
			
			atualizaDisplay('f'); // Chamada de função - Mensagem: Finalizando tarefa atual
 870:	86 e6       	ldi	r24, 0x66	; 102
 872:	90 e0       	ldi	r25, 0x00	; 0
 874:	0e 94 e2 01 	call	0x3c4	; 0x3c4 <atualizaDisplay>
			
			tarefa_atual ++; // Passa para a próxima tarefa
 878:	80 91 b0 03 	lds	r24, 0x03B0	; 0x8003b0 <tarefa_atual>
 87c:	8f 5f       	subi	r24, 0xFF	; 255
 87e:	80 93 b0 03 	sts	0x03B0, r24	; 0x8003b0 <tarefa_atual>
 882:	2f ef       	ldi	r18, 0xFF	; 255
 884:	83 ed       	ldi	r24, 0xD3	; 211
 886:	90 e3       	ldi	r25, 0x30	; 48
 888:	21 50       	subi	r18, 0x01	; 1
 88a:	80 40       	sbci	r24, 0x00	; 0
 88c:	90 40       	sbci	r25, 0x00	; 0
 88e:	e1 f7       	brne	.-8      	; 0x888 <__DATA_REGION_LENGTH__+0x88>
 890:	00 c0       	rjmp	.+0      	; 0x892 <__DATA_REGION_LENGTH__+0x92>
 892:	00 00       	nop
			
			_delay_ms(1000);
			atualizaDisplay(tarefa_atual); // Chamada de função - Mensagem: Atividade atual em andamento
 894:	80 91 b0 03 	lds	r24, 0x03B0	; 0x8003b0 <tarefa_atual>
 898:	90 e0       	ldi	r25, 0x00	; 0
 89a:	0e 94 e2 01 	call	0x3c4	; 0x3c4 <atualizaDisplay>
		}
		
		pcint0_int ++;
 89e:	80 91 b0 01 	lds	r24, 0x01B0	; 0x8001b0 <__data_end>
 8a2:	8f 5f       	subi	r24, 0xFF	; 255
 8a4:	80 93 b0 01 	sts	0x01B0, r24	; 0x8001b0 <__data_end>
 8a8:	02 c0       	rjmp	.+4      	; 0x8ae <__DATA_REGION_LENGTH__+0xae>
	}
	else
	{
		pcint0_int = 0;
 8aa:	10 92 b0 01 	sts	0x01B0, r1	; 0x8001b0 <__data_end>
	}
}
 8ae:	ff 91       	pop	r31
 8b0:	ef 91       	pop	r30
 8b2:	df 91       	pop	r29
 8b4:	cf 91       	pop	r28
 8b6:	bf 91       	pop	r27
 8b8:	af 91       	pop	r26
 8ba:	9f 91       	pop	r25
 8bc:	8f 91       	pop	r24
 8be:	7f 91       	pop	r23
 8c0:	6f 91       	pop	r22
 8c2:	5f 91       	pop	r21
 8c4:	4f 91       	pop	r20
 8c6:	3f 91       	pop	r19
 8c8:	2f 91       	pop	r18
 8ca:	1f 91       	pop	r17
 8cc:	0f 91       	pop	r16
 8ce:	0f 90       	pop	r0
 8d0:	0f be       	out	0x3f, r0	; 63
 8d2:	0f 90       	pop	r0
 8d4:	1f 90       	pop	r1
 8d6:	18 95       	reti

000008d8 <seleciona_saida_demux>:

// Função que seleciona a saída do DEMUX
void seleciona_saida_demux()
{
	switch(hrs)
 8d8:	e0 91 af 03 	lds	r30, 0x03AF	; 0x8003af <hrs>
 8dc:	8e 2f       	mov	r24, r30
 8de:	ee 0f       	add	r30, r30
 8e0:	99 0b       	sbc	r25, r25
 8e2:	aa 0b       	sbc	r26, r26
 8e4:	bb 0b       	sbc	r27, r27
 8e6:	87 30       	cpi	r24, 0x07	; 7
 8e8:	91 05       	cpc	r25, r1
 8ea:	90 f5       	brcc	.+100    	; 0x950 <__stack+0x51>
 8ec:	fc 01       	movw	r30, r24
 8ee:	ec 5c       	subi	r30, 0xCC	; 204
 8f0:	ff 4f       	sbci	r31, 0xFF	; 255
 8f2:	0c 94 fc 06 	jmp	0xdf8	; 0xdf8 <__tablejump2__>
	{
		case 0:
			// Seleciona a saída do DEMUX: 00
			PORTC &= 0b0111111; // S0 = PC6 = 0
 8f6:	88 b1       	in	r24, 0x08	; 8
 8f8:	8f 73       	andi	r24, 0x3F	; 63
 8fa:	88 b9       	out	0x08, r24	; 8
			PORTD &= 0b11111100; // S1 = PD0 = 0 | S2 = PD1 = 0
 8fc:	8b b1       	in	r24, 0x0b	; 11
 8fe:	8c 7f       	andi	r24, 0xFC	; 252
 900:	8b b9       	out	0x0b, r24	; 11
			break;
 902:	08 95       	ret
		case 1:
			// Seleciona a saída do DEMUX: 01
			PORTC |= 0b1000000; // S0 = PC6 = 1
 904:	46 9a       	sbi	0x08, 6	; 8
			PORTD &= 0b11111100; // S1 = PD0 = 0 | S2 = PD1 = 0 
 906:	8b b1       	in	r24, 0x0b	; 11
 908:	8c 7f       	andi	r24, 0xFC	; 252
 90a:	8b b9       	out	0x0b, r24	; 11
			
			// PORTC |= 0b0000001; // Aciona o primeiro LED (PC0)
			break;
 90c:	08 95       	ret
		case 2:
			// Seleciona a saída do DEMUX: 02
			PORTC &= 0b0111111; // S0 = PC6 = 0
 90e:	88 b1       	in	r24, 0x08	; 8
 910:	8f 73       	andi	r24, 0x3F	; 63
 912:	88 b9       	out	0x08, r24	; 8
			PORTD |= 0b00000001;  // S1 = PD0 = 1
 914:	58 9a       	sbi	0x0b, 0	; 11
			PORTD &= 0b11111101; // S2 = PD1 = 0
 916:	59 98       	cbi	0x0b, 1	; 11
			
			// PORTC |= 0b0000010; // Aciona o segundo LED (PC1)
			break;
 918:	08 95       	ret
		case 3:
			// Seleciona a saída do DEMUX: 03
			PORTC |= 0b1000000; // S0 = PC6 = 1
 91a:	46 9a       	sbi	0x08, 6	; 8
			PORTD |= 0b00000001; // S1 = PD0 = 1
 91c:	58 9a       	sbi	0x0b, 0	; 11
			PORTD &= 0b11111101; // S2 = PD1 = 0
 91e:	59 98       	cbi	0x0b, 1	; 11
			
			// PORTC |= 0b0000100; // Aciona o terceiro LED (PC2)
			break;
 920:	08 95       	ret
		case 4:
			// Seleciona a saída do DEMUX: 04
			PORTC &= 0b0111111; // S0 = PC6 = 0
 922:	88 b1       	in	r24, 0x08	; 8
 924:	8f 73       	andi	r24, 0x3F	; 63
 926:	88 b9       	out	0x08, r24	; 8
			PORTD &= 0b11111110; // S1 = PD0 = 0
 928:	58 98       	cbi	0x0b, 0	; 11
			PORTD |= 0b00000010; // S2 = PD1 = 1
 92a:	59 9a       	sbi	0x0b, 1	; 11
			
			// PORTC |= 0b0001000; // Aciona o quarto LED (PC3)
			break;
 92c:	08 95       	ret
		case 5:
			// Seleciona a saída do DEMUX: 05
			PORTC |= 0b1000000; // S0 = PC6 = 1
 92e:	46 9a       	sbi	0x08, 6	; 8
			PORTD &= 0b11111110; // S1 = PD0 = 0
 930:	58 98       	cbi	0x0b, 0	; 11
			PORTD |= 0b00000010; // S2 = PD1 = 1
 932:	59 9a       	sbi	0x0b, 1	; 11
			
			// PORTC |= 0b0010000; // Aciona o quinto LED (PC4)
			break;
 934:	08 95       	ret
		case 6:
			// Seleciona a saída do DEMUX: 06
			PORTC &= 0b0111111; // S0 = PC6 = 0
 936:	88 b1       	in	r24, 0x08	; 8
 938:	8f 73       	andi	r24, 0x3F	; 63
 93a:	88 b9       	out	0x08, r24	; 8
			PORTD |= 0b00000011; // S1 = PD0 = 1 | S2 = PD1 = 1
 93c:	8b b1       	in	r24, 0x0b	; 11
 93e:	83 60       	ori	r24, 0x03	; 3
 940:	8b b9       	out	0x0b, r24	; 11
						
			// PORTC |= 0b0100000; // Aciona o sexto LED (PC5)
			finaliza = 1;
 942:	81 e0       	ldi	r24, 0x01	; 1
 944:	80 93 b6 03 	sts	0x03B6, r24	; 0x8003b6 <finaliza>
			atualizaDisplay('x');
 948:	88 e7       	ldi	r24, 0x78	; 120
 94a:	90 e0       	ldi	r25, 0x00	; 0
 94c:	0e 94 e2 01 	call	0x3c4	; 0x3c4 <atualizaDisplay>
 950:	08 95       	ret

00000952 <__vector_7>:
	}
}

// Interrupção do TC0 a cada 1ms = (64*(249+1))/16MHz
ISR(TIMER2_COMPA_vect)
{
 952:	1f 92       	push	r1
 954:	0f 92       	push	r0
 956:	0f b6       	in	r0, 0x3f	; 63
 958:	0f 92       	push	r0
 95a:	11 24       	eor	r1, r1
 95c:	2f 93       	push	r18
 95e:	3f 93       	push	r19
 960:	4f 93       	push	r20
 962:	5f 93       	push	r21
 964:	6f 93       	push	r22
 966:	7f 93       	push	r23
 968:	8f 93       	push	r24
 96a:	9f 93       	push	r25
 96c:	af 93       	push	r26
 96e:	bf 93       	push	r27
 970:	ef 93       	push	r30
 972:	ff 93       	push	r31
	if (pausa != 1 && finaliza != 1) // Incrementa o timer se a flag pausa for 0
 974:	80 91 ad 03 	lds	r24, 0x03AD	; 0x8003ad <pausa>
 978:	81 30       	cpi	r24, 0x01	; 1
 97a:	e9 f1       	breq	.+122    	; 0x9f6 <__vector_7+0xa4>
 97c:	80 91 b6 03 	lds	r24, 0x03B6	; 0x8003b6 <finaliza>
 980:	81 30       	cpi	r24, 0x01	; 1
 982:	c9 f1       	breq	.+114    	; 0x9f6 <__vector_7+0xa4>
	{
		mili += 100; // Incrementa os milissegundos
 984:	80 91 ab 03 	lds	r24, 0x03AB	; 0x8003ab <mili>
 988:	90 91 ac 03 	lds	r25, 0x03AC	; 0x8003ac <mili+0x1>
 98c:	8c 59       	subi	r24, 0x9C	; 156
 98e:	9f 4f       	sbci	r25, 0xFF	; 255
		
		if (mili >= 1000)
 990:	88 3e       	cpi	r24, 0xE8	; 232
 992:	23 e0       	ldi	r18, 0x03	; 3
 994:	92 07       	cpc	r25, r18
 996:	2c f4       	brge	.+10     	; 0x9a2 <__vector_7+0x50>
// Interrupção do TC0 a cada 1ms = (64*(249+1))/16MHz
ISR(TIMER2_COMPA_vect)
{
	if (pausa != 1 && finaliza != 1) // Incrementa o timer se a flag pausa for 0
	{
		mili += 100; // Incrementa os milissegundos
 998:	90 93 ac 03 	sts	0x03AC, r25	; 0x8003ac <mili+0x1>
 99c:	80 93 ab 03 	sts	0x03AB, r24	; 0x8003ab <mili>
 9a0:	09 c0       	rjmp	.+18     	; 0x9b4 <__vector_7+0x62>
		
		if (mili >= 1000)
		{
			mili = 0;
 9a2:	10 92 ac 03 	sts	0x03AC, r1	; 0x8003ac <mili+0x1>
 9a6:	10 92 ab 03 	sts	0x03AB, r1	; 0x8003ab <mili>
			seg++; // Incrementa os segundos
 9aa:	80 91 ae 03 	lds	r24, 0x03AE	; 0x8003ae <seg>
 9ae:	8f 5f       	subi	r24, 0xFF	; 255
 9b0:	80 93 ae 03 	sts	0x03AE, r24	; 0x8003ae <seg>
		}
		if (seg >= 60)
 9b4:	80 91 ae 03 	lds	r24, 0x03AE	; 0x8003ae <seg>
 9b8:	8c 33       	cpi	r24, 0x3C	; 60
 9ba:	4c f0       	brlt	.+18     	; 0x9ce <__vector_7+0x7c>
		{
			seg = 0;
 9bc:	10 92 ae 03 	sts	0x03AE, r1	; 0x8003ae <seg>
			min++; // Incrementa os minutos
 9c0:	80 91 b2 03 	lds	r24, 0x03B2	; 0x8003b2 <min>
 9c4:	8f 5f       	subi	r24, 0xFF	; 255
 9c6:	80 93 b2 03 	sts	0x03B2, r24	; 0x8003b2 <min>
			define_porcentagem_PWM();
 9ca:	0e 94 4a 01 	call	0x294	; 0x294 <define_porcentagem_PWM>
		}		
		if (min >= 60)
 9ce:	80 91 b2 03 	lds	r24, 0x03B2	; 0x8003b2 <min>
 9d2:	8c 33       	cpi	r24, 0x3C	; 60
 9d4:	84 f0       	brlt	.+32     	; 0x9f6 <__vector_7+0xa4>
		{
			min = 0;
 9d6:	10 92 b2 03 	sts	0x03B2, r1	; 0x8003b2 <min>
			hrs++; // Incrementa as horas
 9da:	80 91 af 03 	lds	r24, 0x03AF	; 0x8003af <hrs>
 9de:	8f 5f       	subi	r24, 0xFF	; 255
 9e0:	80 93 af 03 	sts	0x03AF, r24	; 0x8003af <hrs>
			OCR0A = 0;
 9e4:	17 bc       	out	0x27, r1	; 39
 9e6:	8f e3       	ldi	r24, 0x3F	; 63
 9e8:	9c e9       	ldi	r25, 0x9C	; 156
 9ea:	01 97       	sbiw	r24, 0x01	; 1
 9ec:	f1 f7       	brne	.-4      	; 0x9ea <__vector_7+0x98>
 9ee:	00 c0       	rjmp	.+0      	; 0x9f0 <__vector_7+0x9e>
 9f0:	00 00       	nop
			_delay_ms(10);
			seleciona_saida_demux();
 9f2:	0e 94 6c 04 	call	0x8d8	; 0x8d8 <seleciona_saida_demux>
		}
	}
}
 9f6:	ff 91       	pop	r31
 9f8:	ef 91       	pop	r30
 9fa:	bf 91       	pop	r27
 9fc:	af 91       	pop	r26
 9fe:	9f 91       	pop	r25
 a00:	8f 91       	pop	r24
 a02:	7f 91       	pop	r23
 a04:	6f 91       	pop	r22
 a06:	5f 91       	pop	r21
 a08:	4f 91       	pop	r20
 a0a:	3f 91       	pop	r19
 a0c:	2f 91       	pop	r18
 a0e:	0f 90       	pop	r0
 a10:	0f be       	out	0x3f, r0	; 63
 a12:	0f 90       	pop	r0
 a14:	1f 90       	pop	r1
 a16:	18 95       	reti

00000a18 <main>:
	return UDR0; // Lê o dado recebido e retorna
}

int main(void) //-
{
	DDRB = 0b11111110; // Define todos os pinos da porta B como saída (exceto B0)
 a18:	8e ef       	ldi	r24, 0xFE	; 254
 a1a:	84 b9       	out	0x04, r24	; 4
	PORTB = 0b00000001; // Habilita pull-up do pino PB0
 a1c:	c1 e0       	ldi	r28, 0x01	; 1
 a1e:	c5 b9       	out	0x05, r28	; 5
	DDRD = 0b11110011; // Define os pinos da porta D: D0-D3 como entradas; D4-D7 como saída
 a20:	83 ef       	ldi	r24, 0xF3	; 243
 a22:	8a b9       	out	0x0a, r24	; 10
	PORTD = 0b00001100; // Habilita pull-ups dos pinos PD2 e PD3
 a24:	8c e0       	ldi	r24, 0x0C	; 12
 a26:	8b b9       	out	0x0b, r24	; 11
	
	// Variáveis inicializadas
	mili = 0;
 a28:	10 92 ac 03 	sts	0x03AC, r1	; 0x8003ac <mili+0x1>
 a2c:	10 92 ab 03 	sts	0x03AB, r1	; 0x8003ab <mili>
	seg = 0;
 a30:	10 92 ae 03 	sts	0x03AE, r1	; 0x8003ae <seg>
	min = 0;
 a34:	10 92 b2 03 	sts	0x03B2, r1	; 0x8003b2 <min>
	hrs = 0;
 a38:	10 92 af 03 	sts	0x03AF, r1	; 0x8003af <hrs>
	pausa = 1;
 a3c:	c0 93 ad 03 	sts	0x03AD, r28	; 0x8003ad <pausa>
	seleciona_saida_demux();
 a40:	0e 94 6c 04 	call	0x8d8	; 0x8d8 <seleciona_saida_demux>
	
	USART_Init(MYUBRR);
 a44:	87 e6       	ldi	r24, 0x67	; 103
 a46:	90 e0       	ldi	r25, 0x00	; 0
 a48:	0e 94 68 01 	call	0x2d0	; 0x2d0 <USART_Init>
	
	// Fast PWM, TOP = 0xFF, OC0A habilitado
	TCCR0A = 0b10000011; // PWM não invertido no pino OC0A
 a4c:	83 e8       	ldi	r24, 0x83	; 131
 a4e:	84 bd       	out	0x24, r24	; 36
	TCCR0B = 0b00000101; // Liga TC0, prescaler = 1024, fpwm = f0sc/(256*prescaler) = 16MHz/(256*1024) = 61Hz
 a50:	85 e0       	ldi	r24, 0x05	; 5
 a52:	85 bd       	out	0x25, r24	; 37
	OCR0A = 0; // Controle do ciclo ativo do PWM 0C0A
 a54:	17 bc       	out	0x27, r1	; 39
	
	// Configuração das Interrupções Externas
	EICRA = 0b00001010;// Interrupções externas INT0 e INT1 na borda de descida
 a56:	8a e0       	ldi	r24, 0x0A	; 10
 a58:	80 93 69 00 	sts	0x0069, r24	; 0x800069 <__TEXT_REGION_LENGTH__+0x7f8069>
	EIMSK = 0b00000011;// Habilita as interrupções externas INT0 e INT1
 a5c:	93 e0       	ldi	r25, 0x03	; 3
 a5e:	9d bb       	out	0x1d, r25	; 29
	
	// Configuração da Interrupção 0 por mudança de pino
	PCICR = 0b00000001; // Enable pin change interrupt 0
 a60:	c0 93 68 00 	sts	0x0068, r28	; 0x800068 <__TEXT_REGION_LENGTH__+0x7f8068>
	PCMSK0 = 0b00000001; // Pin change enable mask 0
 a64:	c0 93 6b 00 	sts	0x006B, r28	; 0x80006b <__TEXT_REGION_LENGTH__+0x7f806b>
	
	// Configuração dos Timers
	TCCR2A = 0b00000010; // Habilita modo CTC do TC0
 a68:	82 e0       	ldi	r24, 0x02	; 2
 a6a:	80 93 b0 00 	sts	0x00B0, r24	; 0x8000b0 <__TEXT_REGION_LENGTH__+0x7f80b0>
	TCCR2B = 0b00000011; // Liga TC0 com prescaler = 64
 a6e:	90 93 b1 00 	sts	0x00B1, r25	; 0x8000b1 <__TEXT_REGION_LENGTH__+0x7f80b1>
	OCR2A = 249;		 // Ajusta o comparador para o TC0 contar até 249
 a72:	99 ef       	ldi	r25, 0xF9	; 249
 a74:	90 93 b3 00 	sts	0x00B3, r25	; 0x8000b3 <__TEXT_REGION_LENGTH__+0x7f80b3>
	TIMSK2 = 0b00000010; // Habilita a interrupção na igualdade de comparação com OCR0A. A interrupção ocorre a cada 1ms = (64*(249+1))/16MHz
 a78:	80 93 70 00 	sts	0x0070, r24	; 0x800070 <__TEXT_REGION_LENGTH__+0x7f8070>
	
	sei(); // Habilita interrupções globais, ativando o bit I do SREG
 a7c:	78 94       	sei
	
	nokia_lcd_init(); // Inicializa o LCD
 a7e:	0e 94 91 05 	call	0xb22	; 0xb22 <nokia_lcd_init>
	nokia_lcd_clear();
 a82:	0e 94 d2 05 	call	0xba4	; 0xba4 <nokia_lcd_clear>
	nokia_lcd_write_string("--------------", 1);
 a86:	61 e0       	ldi	r22, 0x01	; 1
 a88:	80 e0       	ldi	r24, 0x00	; 0
 a8a:	91 e0       	ldi	r25, 0x01	; 1
 a8c:	0e 94 be 06 	call	0xd7c	; 0xd7c <nokia_lcd_write_string>
	nokia_lcd_set_cursor(0, 10);
 a90:	6a e0       	ldi	r22, 0x0A	; 10
 a92:	80 e0       	ldi	r24, 0x00	; 0
 a94:	0e 94 d1 06 	call	0xda2	; 0xda2 <nokia_lcd_set_cursor>
	nokia_lcd_write_string("Digite quantas", 1);
 a98:	61 e0       	ldi	r22, 0x01	; 1
 a9a:	87 e8       	ldi	r24, 0x87	; 135
 a9c:	91 e0       	ldi	r25, 0x01	; 1
 a9e:	0e 94 be 06 	call	0xd7c	; 0xd7c <nokia_lcd_write_string>
	nokia_lcd_set_cursor(0, 20);
 aa2:	64 e1       	ldi	r22, 0x14	; 20
 aa4:	80 e0       	ldi	r24, 0x00	; 0
 aa6:	0e 94 d1 06 	call	0xda2	; 0xda2 <nokia_lcd_set_cursor>
	nokia_lcd_write_string(" tarefas vai", 1);
 aaa:	61 e0       	ldi	r22, 0x01	; 1
 aac:	86 e9       	ldi	r24, 0x96	; 150
 aae:	91 e0       	ldi	r25, 0x01	; 1
 ab0:	0e 94 be 06 	call	0xd7c	; 0xd7c <nokia_lcd_write_string>
	nokia_lcd_set_cursor(0, 30);
 ab4:	6e e1       	ldi	r22, 0x1E	; 30
 ab6:	80 e0       	ldi	r24, 0x00	; 0
 ab8:	0e 94 d1 06 	call	0xda2	; 0xda2 <nokia_lcd_set_cursor>
	nokia_lcd_write_string("   realizar", 1);
 abc:	61 e0       	ldi	r22, 0x01	; 1
 abe:	83 ea       	ldi	r24, 0xA3	; 163
 ac0:	91 e0       	ldi	r25, 0x01	; 1
 ac2:	0e 94 be 06 	call	0xd7c	; 0xd7c <nokia_lcd_write_string>
	nokia_lcd_set_cursor(0, 40);
 ac6:	68 e2       	ldi	r22, 0x28	; 40
 ac8:	80 e0       	ldi	r24, 0x00	; 0
 aca:	0e 94 d1 06 	call	0xda2	; 0xda2 <nokia_lcd_set_cursor>
	nokia_lcd_write_string("--------------", 1);
 ace:	61 e0       	ldi	r22, 0x01	; 1
 ad0:	80 e0       	ldi	r24, 0x00	; 0
 ad2:	91 e0       	ldi	r25, 0x01	; 1
 ad4:	0e 94 be 06 	call	0xd7c	; 0xd7c <nokia_lcd_write_string>
	nokia_lcd_render();
 ad8:	0e 94 d6 06 	call	0xdac	; 0xdac <nokia_lcd_render>
 adc:	ff cf       	rjmp	.-2      	; 0xadc <main+0xc4>

00000ade <write>:
		nokia_lcd.screen[i] = 0x00;
}

void nokia_lcd_power(uint8_t on)
{
	write_cmd(on ? 0x20 : 0x24);
 ade:	29 98       	cbi	0x05, 1	; 5
 ae0:	66 23       	and	r22, r22
 ae2:	11 f0       	breq	.+4      	; 0xae8 <write+0xa>
 ae4:	2b 9a       	sbi	0x05, 3	; 5
 ae6:	15 c0       	rjmp	.+42     	; 0xb12 <write+0x34>
 ae8:	2b 98       	cbi	0x05, 3	; 5
 aea:	13 c0       	rjmp	.+38     	; 0xb12 <write+0x34>
 aec:	ac 01       	movw	r20, r24
 aee:	02 2e       	mov	r0, r18
 af0:	02 c0       	rjmp	.+4      	; 0xaf6 <write+0x18>
 af2:	55 95       	asr	r21
 af4:	47 95       	ror	r20
 af6:	0a 94       	dec	r0
 af8:	e2 f7       	brpl	.-8      	; 0xaf2 <write+0x14>
 afa:	40 ff       	sbrs	r20, 0
 afc:	02 c0       	rjmp	.+4      	; 0xb02 <write+0x24>
 afe:	2c 9a       	sbi	0x05, 4	; 5
 b00:	01 c0       	rjmp	.+2      	; 0xb04 <write+0x26>
 b02:	2c 98       	cbi	0x05, 4	; 5
 b04:	2d 9a       	sbi	0x05, 5	; 5
 b06:	2d 98       	cbi	0x05, 5	; 5
 b08:	21 50       	subi	r18, 0x01	; 1
 b0a:	31 09       	sbc	r19, r1
 b0c:	78 f7       	brcc	.-34     	; 0xaec <write+0xe>
 b0e:	29 9a       	sbi	0x05, 1	; 5
 b10:	08 95       	ret
 b12:	27 e0       	ldi	r18, 0x07	; 7
 b14:	30 e0       	ldi	r19, 0x00	; 0
 b16:	90 e0       	ldi	r25, 0x00	; 0
 b18:	e9 cf       	rjmp	.-46     	; 0xaec <write+0xe>

00000b1a <write_cmd>:
 b1a:	60 e0       	ldi	r22, 0x00	; 0
 b1c:	0e 94 6f 05 	call	0xade	; 0xade <write>
 b20:	08 95       	ret

00000b22 <nokia_lcd_init>:
 b22:	cf 93       	push	r28
 b24:	df 93       	push	r29
 b26:	21 9a       	sbi	0x04, 1	; 4
 b28:	22 9a       	sbi	0x04, 2	; 4
 b2a:	23 9a       	sbi	0x04, 3	; 4
 b2c:	24 9a       	sbi	0x04, 4	; 4
 b2e:	25 9a       	sbi	0x04, 5	; 4
 b30:	2a 9a       	sbi	0x05, 2	; 5
 b32:	29 9a       	sbi	0x05, 1	; 5
 b34:	83 ec       	ldi	r24, 0xC3	; 195
 b36:	99 e0       	ldi	r25, 0x09	; 9
 b38:	01 97       	sbiw	r24, 0x01	; 1
 b3a:	f1 f7       	brne	.-4      	; 0xb38 <nokia_lcd_init+0x16>
 b3c:	00 c0       	rjmp	.+0      	; 0xb3e <nokia_lcd_init+0x1c>
 b3e:	00 00       	nop
 b40:	2a 98       	cbi	0x05, 2	; 5
 b42:	8b e5       	ldi	r24, 0x5B	; 91
 b44:	94 e4       	ldi	r25, 0x44	; 68
 b46:	01 97       	sbiw	r24, 0x01	; 1
 b48:	f1 f7       	brne	.-4      	; 0xb46 <nokia_lcd_init+0x24>
 b4a:	00 c0       	rjmp	.+0      	; 0xb4c <nokia_lcd_init+0x2a>
 b4c:	00 00       	nop
 b4e:	2a 9a       	sbi	0x05, 2	; 5
 b50:	29 98       	cbi	0x05, 1	; 5
 b52:	81 e2       	ldi	r24, 0x21	; 33
 b54:	0e 94 8d 05 	call	0xb1a	; 0xb1a <write_cmd>
 b58:	83 e1       	ldi	r24, 0x13	; 19
 b5a:	0e 94 8d 05 	call	0xb1a	; 0xb1a <write_cmd>
 b5e:	86 e0       	ldi	r24, 0x06	; 6
 b60:	0e 94 8d 05 	call	0xb1a	; 0xb1a <write_cmd>
 b64:	82 ec       	ldi	r24, 0xC2	; 194
 b66:	0e 94 8d 05 	call	0xb1a	; 0xb1a <write_cmd>
 b6a:	80 e2       	ldi	r24, 0x20	; 32
 b6c:	0e 94 8d 05 	call	0xb1a	; 0xb1a <write_cmd>
 b70:	89 e0       	ldi	r24, 0x09	; 9
 b72:	0e 94 8d 05 	call	0xb1a	; 0xb1a <write_cmd>
 b76:	80 e8       	ldi	r24, 0x80	; 128
 b78:	0e 94 8d 05 	call	0xb1a	; 0xb1a <write_cmd>
 b7c:	80 e4       	ldi	r24, 0x40	; 64
 b7e:	0e 94 8d 05 	call	0xb1a	; 0xb1a <write_cmd>
 b82:	c8 ef       	ldi	r28, 0xF8	; 248
 b84:	d1 e0       	ldi	r29, 0x01	; 1
 b86:	61 e0       	ldi	r22, 0x01	; 1
 b88:	80 e0       	ldi	r24, 0x00	; 0
 b8a:	0e 94 6f 05 	call	0xade	; 0xade <write>
 b8e:	21 97       	sbiw	r28, 0x01	; 1
 b90:	d1 f7       	brne	.-12     	; 0xb86 <nokia_lcd_init+0x64>
 b92:	88 e0       	ldi	r24, 0x08	; 8
 b94:	0e 94 8d 05 	call	0xb1a	; 0xb1a <write_cmd>
 b98:	8c e0       	ldi	r24, 0x0C	; 12
 b9a:	0e 94 8d 05 	call	0xb1a	; 0xb1a <write_cmd>
 b9e:	df 91       	pop	r29
 ba0:	cf 91       	pop	r28
 ba2:	08 95       	ret

00000ba4 <nokia_lcd_clear>:
 ba4:	80 e8       	ldi	r24, 0x80	; 128
 ba6:	0e 94 8d 05 	call	0xb1a	; 0xb1a <write_cmd>
 baa:	80 e4       	ldi	r24, 0x40	; 64
 bac:	0e 94 8d 05 	call	0xb1a	; 0xb1a <write_cmd>
 bb0:	10 92 a9 03 	sts	0x03A9, r1	; 0x8003a9 <nokia_lcd+0x1f8>
 bb4:	10 92 aa 03 	sts	0x03AA, r1	; 0x8003aa <nokia_lcd+0x1f9>
 bb8:	e1 eb       	ldi	r30, 0xB1	; 177
 bba:	f1 e0       	ldi	r31, 0x01	; 1
 bbc:	89 ea       	ldi	r24, 0xA9	; 169
 bbe:	93 e0       	ldi	r25, 0x03	; 3
 bc0:	11 92       	st	Z+, r1
 bc2:	e8 17       	cp	r30, r24
 bc4:	f9 07       	cpc	r31, r25
 bc6:	e1 f7       	brne	.-8      	; 0xbc0 <nokia_lcd_clear+0x1c>
 bc8:	08 95       	ret

00000bca <nokia_lcd_set_pixel>:
}

void nokia_lcd_set_pixel(uint8_t x, uint8_t y, uint8_t value)
{
	uint8_t *byte = &nokia_lcd.screen[y/8*84+x];
 bca:	26 2f       	mov	r18, r22
 bcc:	26 95       	lsr	r18
 bce:	26 95       	lsr	r18
 bd0:	26 95       	lsr	r18
 bd2:	90 e0       	ldi	r25, 0x00	; 0
 bd4:	34 e5       	ldi	r19, 0x54	; 84
 bd6:	23 9f       	mul	r18, r19
 bd8:	80 0d       	add	r24, r0
 bda:	91 1d       	adc	r25, r1
 bdc:	11 24       	eor	r1, r1
	if (value)
 bde:	44 23       	and	r20, r20
 be0:	79 f0       	breq	.+30     	; 0xc00 <nokia_lcd_set_pixel+0x36>
		*byte |= (1 << (y % 8));
 be2:	fc 01       	movw	r30, r24
 be4:	ef 54       	subi	r30, 0x4F	; 79
 be6:	fe 4f       	sbci	r31, 0xFE	; 254
 be8:	67 70       	andi	r22, 0x07	; 7
 bea:	81 e0       	ldi	r24, 0x01	; 1
 bec:	90 e0       	ldi	r25, 0x00	; 0
 bee:	02 c0       	rjmp	.+4      	; 0xbf4 <nokia_lcd_set_pixel+0x2a>
 bf0:	88 0f       	add	r24, r24
 bf2:	99 1f       	adc	r25, r25
 bf4:	6a 95       	dec	r22
 bf6:	e2 f7       	brpl	.-8      	; 0xbf0 <nokia_lcd_set_pixel+0x26>
 bf8:	90 81       	ld	r25, Z
 bfa:	89 2b       	or	r24, r25
 bfc:	80 83       	st	Z, r24
 bfe:	08 95       	ret
	else
		*byte &= ~(1 << (y %8 ));
 c00:	fc 01       	movw	r30, r24
 c02:	ef 54       	subi	r30, 0x4F	; 79
 c04:	fe 4f       	sbci	r31, 0xFE	; 254
 c06:	67 70       	andi	r22, 0x07	; 7
 c08:	81 e0       	ldi	r24, 0x01	; 1
 c0a:	90 e0       	ldi	r25, 0x00	; 0
 c0c:	02 c0       	rjmp	.+4      	; 0xc12 <nokia_lcd_set_pixel+0x48>
 c0e:	88 0f       	add	r24, r24
 c10:	99 1f       	adc	r25, r25
 c12:	6a 95       	dec	r22
 c14:	e2 f7       	brpl	.-8      	; 0xc0e <nokia_lcd_set_pixel+0x44>
 c16:	80 95       	com	r24
 c18:	90 81       	ld	r25, Z
 c1a:	89 23       	and	r24, r25
 c1c:	80 83       	st	Z, r24
 c1e:	08 95       	ret

00000c20 <nokia_lcd_write_char>:
}

void nokia_lcd_write_char(char code, uint8_t scale)
{
 c20:	5f 92       	push	r5
 c22:	6f 92       	push	r6
 c24:	7f 92       	push	r7
 c26:	8f 92       	push	r8
 c28:	9f 92       	push	r9
 c2a:	af 92       	push	r10
 c2c:	bf 92       	push	r11
 c2e:	cf 92       	push	r12
 c30:	df 92       	push	r13
 c32:	ef 92       	push	r14
 c34:	ff 92       	push	r15
 c36:	0f 93       	push	r16
 c38:	1f 93       	push	r17
 c3a:	cf 93       	push	r28
 c3c:	df 93       	push	r29
 c3e:	56 2e       	mov	r5, r22
	register uint8_t x, y;

	for (x = 0; x < 5*scale; x++)
 c40:	26 2f       	mov	r18, r22
 c42:	30 e0       	ldi	r19, 0x00	; 0
 c44:	49 01       	movw	r8, r18
 c46:	88 0c       	add	r8, r8
 c48:	99 1c       	adc	r9, r9
 c4a:	88 0c       	add	r8, r8
 c4c:	99 1c       	adc	r9, r9
 c4e:	82 0e       	add	r8, r18
 c50:	93 1e       	adc	r9, r19
 c52:	18 14       	cp	r1, r8
 c54:	19 04       	cpc	r1, r9
 c56:	0c f0       	brlt	.+2      	; 0xc5a <nokia_lcd_write_char+0x3a>
 c58:	5d c0       	rjmp	.+186    	; 0xd14 <nokia_lcd_write_char+0xf4>
		for (y = 0; y < 7*scale; y++)
 c5a:	89 01       	movw	r16, r18
 c5c:	00 0f       	add	r16, r16
 c5e:	11 1f       	adc	r17, r17
 c60:	00 0f       	add	r16, r16
 c62:	11 1f       	adc	r17, r17
 c64:	00 0f       	add	r16, r16
 c66:	11 1f       	adc	r17, r17
 c68:	02 1b       	sub	r16, r18
 c6a:	13 0b       	sbc	r17, r19
 c6c:	61 2c       	mov	r6, r1
			if (pgm_read_byte(&CHARSET[code-32][x/scale]) & (1 << y/scale))
 c6e:	a8 2e       	mov	r10, r24
 c70:	b1 2c       	mov	r11, r1
 c72:	c5 01       	movw	r24, r10
 c74:	80 97       	sbiw	r24, 0x20	; 32
 c76:	5c 01       	movw	r10, r24
 c78:	aa 0c       	add	r10, r10
 c7a:	bb 1c       	adc	r11, r11
 c7c:	aa 0c       	add	r10, r10
 c7e:	bb 1c       	adc	r11, r11
 c80:	a8 0e       	add	r10, r24
 c82:	b9 1e       	adc	r11, r25
				nokia_lcd_set_pixel(nokia_lcd.cursor_x + x, nokia_lcd.cursor_y + y, 1);
			else
				nokia_lcd_set_pixel(nokia_lcd.cursor_x + x, nokia_lcd.cursor_y + y, 0);
 c84:	0f 2e       	mov	r0, r31
 c86:	fa ea       	ldi	r31, 0xAA	; 170
 c88:	cf 2e       	mov	r12, r31
 c8a:	f3 e0       	ldi	r31, 0x03	; 3
 c8c:	df 2e       	mov	r13, r31
 c8e:	f0 2d       	mov	r31, r0
 c90:	0f 2e       	mov	r0, r31
 c92:	f9 ea       	ldi	r31, 0xA9	; 169
 c94:	ef 2e       	mov	r14, r31
 c96:	f3 e0       	ldi	r31, 0x03	; 3
 c98:	ff 2e       	mov	r15, r31
 c9a:	f0 2d       	mov	r31, r0
 c9c:	2d c0       	rjmp	.+90     	; 0xcf8 <nokia_lcd_write_char+0xd8>
{
	register uint8_t x, y;

	for (x = 0; x < 5*scale; x++)
		for (y = 0; y < 7*scale; y++)
			if (pgm_read_byte(&CHARSET[code-32][x/scale]) & (1 << y/scale))
 c9e:	fe 01       	movw	r30, r28
 ca0:	24 91       	lpm	r18, Z
 ca2:	30 e0       	ldi	r19, 0x00	; 0
 ca4:	87 2d       	mov	r24, r7
 ca6:	65 2d       	mov	r22, r5
 ca8:	0e 94 f0 06 	call	0xde0	; 0xde0 <__udivmodqi4>
 cac:	02 c0       	rjmp	.+4      	; 0xcb2 <nokia_lcd_write_char+0x92>
 cae:	35 95       	asr	r19
 cb0:	27 95       	ror	r18
 cb2:	8a 95       	dec	r24
 cb4:	e2 f7       	brpl	.-8      	; 0xcae <nokia_lcd_write_char+0x8e>
 cb6:	20 ff       	sbrs	r18, 0
 cb8:	0a c0       	rjmp	.+20     	; 0xcce <nokia_lcd_write_char+0xae>
				nokia_lcd_set_pixel(nokia_lcd.cursor_x + x, nokia_lcd.cursor_y + y, 1);
 cba:	f6 01       	movw	r30, r12
 cbc:	60 81       	ld	r22, Z
 cbe:	67 0d       	add	r22, r7
 cc0:	f7 01       	movw	r30, r14
 cc2:	80 81       	ld	r24, Z
 cc4:	41 e0       	ldi	r20, 0x01	; 1
 cc6:	86 0d       	add	r24, r6
 cc8:	0e 94 e5 05 	call	0xbca	; 0xbca <nokia_lcd_set_pixel>
 ccc:	09 c0       	rjmp	.+18     	; 0xce0 <nokia_lcd_write_char+0xc0>
			else
				nokia_lcd_set_pixel(nokia_lcd.cursor_x + x, nokia_lcd.cursor_y + y, 0);
 cce:	f6 01       	movw	r30, r12
 cd0:	60 81       	ld	r22, Z
 cd2:	67 0d       	add	r22, r7
 cd4:	f7 01       	movw	r30, r14
 cd6:	80 81       	ld	r24, Z
 cd8:	40 e0       	ldi	r20, 0x00	; 0
 cda:	86 0d       	add	r24, r6
 cdc:	0e 94 e5 05 	call	0xbca	; 0xbca <nokia_lcd_set_pixel>
void nokia_lcd_write_char(char code, uint8_t scale)
{
	register uint8_t x, y;

	for (x = 0; x < 5*scale; x++)
		for (y = 0; y < 7*scale; y++)
 ce0:	73 94       	inc	r7
 ce2:	87 2d       	mov	r24, r7
 ce4:	90 e0       	ldi	r25, 0x00	; 0
 ce6:	80 17       	cp	r24, r16
 ce8:	91 07       	cpc	r25, r17
 cea:	cc f2       	brlt	.-78     	; 0xc9e <nokia_lcd_write_char+0x7e>

void nokia_lcd_write_char(char code, uint8_t scale)
{
	register uint8_t x, y;

	for (x = 0; x < 5*scale; x++)
 cec:	63 94       	inc	r6
 cee:	86 2d       	mov	r24, r6
 cf0:	90 e0       	ldi	r25, 0x00	; 0
 cf2:	88 15       	cp	r24, r8
 cf4:	99 05       	cpc	r25, r9
 cf6:	74 f4       	brge	.+28     	; 0xd14 <nokia_lcd_write_char+0xf4>
		for (y = 0; y < 7*scale; y++)
 cf8:	10 16       	cp	r1, r16
 cfa:	11 06       	cpc	r1, r17
 cfc:	bc f7       	brge	.-18     	; 0xcec <nokia_lcd_write_char+0xcc>
			if (pgm_read_byte(&CHARSET[code-32][x/scale]) & (1 << y/scale))
 cfe:	86 2d       	mov	r24, r6
 d00:	65 2d       	mov	r22, r5
 d02:	0e 94 f0 06 	call	0xde0	; 0xde0 <__udivmodqi4>
 d06:	e5 01       	movw	r28, r10
 d08:	c8 0f       	add	r28, r24
 d0a:	d1 1d       	adc	r29, r1
 d0c:	ca 58       	subi	r28, 0x8A	; 138
 d0e:	df 4f       	sbci	r29, 0xFF	; 255
 d10:	71 2c       	mov	r7, r1
 d12:	c5 cf       	rjmp	.-118    	; 0xc9e <nokia_lcd_write_char+0x7e>
				nokia_lcd_set_pixel(nokia_lcd.cursor_x + x, nokia_lcd.cursor_y + y, 1);
			else
				nokia_lcd_set_pixel(nokia_lcd.cursor_x + x, nokia_lcd.cursor_y + y, 0);

	nokia_lcd.cursor_x += 5*scale + 1;
 d14:	80 91 a9 03 	lds	r24, 0x03A9	; 0x8003a9 <nokia_lcd+0x1f8>
 d18:	91 e0       	ldi	r25, 0x01	; 1
 d1a:	98 0f       	add	r25, r24
 d1c:	85 2d       	mov	r24, r5
 d1e:	88 0f       	add	r24, r24
 d20:	88 0f       	add	r24, r24
 d22:	85 0d       	add	r24, r5
 d24:	89 0f       	add	r24, r25
	if (nokia_lcd.cursor_x >= 84) {
 d26:	84 35       	cpi	r24, 0x54	; 84
 d28:	18 f4       	brcc	.+6      	; 0xd30 <nokia_lcd_write_char+0x110>
			if (pgm_read_byte(&CHARSET[code-32][x/scale]) & (1 << y/scale))
				nokia_lcd_set_pixel(nokia_lcd.cursor_x + x, nokia_lcd.cursor_y + y, 1);
			else
				nokia_lcd_set_pixel(nokia_lcd.cursor_x + x, nokia_lcd.cursor_y + y, 0);

	nokia_lcd.cursor_x += 5*scale + 1;
 d2a:	80 93 a9 03 	sts	0x03A9, r24	; 0x8003a9 <nokia_lcd+0x1f8>
 d2e:	0e c0       	rjmp	.+28     	; 0xd4c <nokia_lcd_write_char+0x12c>
	if (nokia_lcd.cursor_x >= 84) {
		nokia_lcd.cursor_x = 0;
 d30:	10 92 a9 03 	sts	0x03A9, r1	; 0x8003a9 <nokia_lcd+0x1f8>
		nokia_lcd.cursor_y += 7*scale + 1;
 d34:	ea ea       	ldi	r30, 0xAA	; 170
 d36:	f3 e0       	ldi	r31, 0x03	; 3
 d38:	80 81       	ld	r24, Z
 d3a:	91 e0       	ldi	r25, 0x01	; 1
 d3c:	98 0f       	add	r25, r24
 d3e:	85 2d       	mov	r24, r5
 d40:	88 0f       	add	r24, r24
 d42:	88 0f       	add	r24, r24
 d44:	88 0f       	add	r24, r24
 d46:	85 19       	sub	r24, r5
 d48:	89 0f       	add	r24, r25
 d4a:	80 83       	st	Z, r24
	}
	if (nokia_lcd.cursor_y >= 48) {
 d4c:	80 91 aa 03 	lds	r24, 0x03AA	; 0x8003aa <nokia_lcd+0x1f9>
 d50:	80 33       	cpi	r24, 0x30	; 48
 d52:	20 f0       	brcs	.+8      	; 0xd5c <nokia_lcd_write_char+0x13c>
		nokia_lcd.cursor_x = 0;
 d54:	10 92 a9 03 	sts	0x03A9, r1	; 0x8003a9 <nokia_lcd+0x1f8>
		nokia_lcd.cursor_y = 0;
 d58:	10 92 aa 03 	sts	0x03AA, r1	; 0x8003aa <nokia_lcd+0x1f9>
	}
}
 d5c:	df 91       	pop	r29
 d5e:	cf 91       	pop	r28
 d60:	1f 91       	pop	r17
 d62:	0f 91       	pop	r16
 d64:	ff 90       	pop	r15
 d66:	ef 90       	pop	r14
 d68:	df 90       	pop	r13
 d6a:	cf 90       	pop	r12
 d6c:	bf 90       	pop	r11
 d6e:	af 90       	pop	r10
 d70:	9f 90       	pop	r9
 d72:	8f 90       	pop	r8
 d74:	7f 90       	pop	r7
 d76:	6f 90       	pop	r6
 d78:	5f 90       	pop	r5
 d7a:	08 95       	ret

00000d7c <nokia_lcd_write_string>:

void nokia_lcd_write_string(const char *str, uint8_t scale)
{
 d7c:	1f 93       	push	r17
 d7e:	cf 93       	push	r28
 d80:	df 93       	push	r29
 d82:	ec 01       	movw	r28, r24
	while(*str)
 d84:	88 81       	ld	r24, Y
 d86:	88 23       	and	r24, r24
 d88:	41 f0       	breq	.+16     	; 0xd9a <nokia_lcd_write_string+0x1e>
 d8a:	16 2f       	mov	r17, r22
 d8c:	21 96       	adiw	r28, 0x01	; 1
		nokia_lcd_write_char(*str++, scale);
 d8e:	61 2f       	mov	r22, r17
 d90:	0e 94 10 06 	call	0xc20	; 0xc20 <nokia_lcd_write_char>
	}
}

void nokia_lcd_write_string(const char *str, uint8_t scale)
{
	while(*str)
 d94:	89 91       	ld	r24, Y+
 d96:	81 11       	cpse	r24, r1
 d98:	fa cf       	rjmp	.-12     	; 0xd8e <nokia_lcd_write_string+0x12>
		nokia_lcd_write_char(*str++, scale);
}
 d9a:	df 91       	pop	r29
 d9c:	cf 91       	pop	r28
 d9e:	1f 91       	pop	r17
 da0:	08 95       	ret

00000da2 <nokia_lcd_set_cursor>:

void nokia_lcd_set_cursor(uint8_t x, uint8_t y)
{
	nokia_lcd.cursor_x = x;
 da2:	80 93 a9 03 	sts	0x03A9, r24	; 0x8003a9 <nokia_lcd+0x1f8>
	nokia_lcd.cursor_y = y;
 da6:	60 93 aa 03 	sts	0x03AA, r22	; 0x8003aa <nokia_lcd+0x1f9>
 daa:	08 95       	ret

00000dac <nokia_lcd_render>:
}

void nokia_lcd_render(void)
{
 dac:	0f 93       	push	r16
 dae:	1f 93       	push	r17
 db0:	cf 93       	push	r28
 db2:	df 93       	push	r29
	register unsigned i;
	/* Set column and row to 0 */
	write_cmd(0x80);
 db4:	80 e8       	ldi	r24, 0x80	; 128
 db6:	0e 94 8d 05 	call	0xb1a	; 0xb1a <write_cmd>
	write_cmd(0x40);
 dba:	80 e4       	ldi	r24, 0x40	; 64
 dbc:	0e 94 8d 05 	call	0xb1a	; 0xb1a <write_cmd>
 dc0:	c1 eb       	ldi	r28, 0xB1	; 177
 dc2:	d1 e0       	ldi	r29, 0x01	; 1
 dc4:	09 ea       	ldi	r16, 0xA9	; 169
 dc6:	13 e0       	ldi	r17, 0x03	; 3
	write(cmd, 0);
}

static void write_data(uint8_t data)
{
	write(data, 1);
 dc8:	61 e0       	ldi	r22, 0x01	; 1
 dca:	89 91       	ld	r24, Y+
 dcc:	0e 94 6f 05 	call	0xade	; 0xade <write>
	/* Set column and row to 0 */
	write_cmd(0x80);
	write_cmd(0x40);

	/* Write screen to display */
	for (i = 0; i < 504; i++)
 dd0:	c0 17       	cp	r28, r16
 dd2:	d1 07       	cpc	r29, r17
 dd4:	c9 f7       	brne	.-14     	; 0xdc8 <nokia_lcd_render+0x1c>
		write_data(nokia_lcd.screen[i]);
}
 dd6:	df 91       	pop	r29
 dd8:	cf 91       	pop	r28
 dda:	1f 91       	pop	r17
 ddc:	0f 91       	pop	r16
 dde:	08 95       	ret

00000de0 <__udivmodqi4>:
 de0:	99 1b       	sub	r25, r25
 de2:	79 e0       	ldi	r23, 0x09	; 9
 de4:	04 c0       	rjmp	.+8      	; 0xdee <__udivmodqi4_ep>

00000de6 <__udivmodqi4_loop>:
 de6:	99 1f       	adc	r25, r25
 de8:	96 17       	cp	r25, r22
 dea:	08 f0       	brcs	.+2      	; 0xdee <__udivmodqi4_ep>
 dec:	96 1b       	sub	r25, r22

00000dee <__udivmodqi4_ep>:
 dee:	88 1f       	adc	r24, r24
 df0:	7a 95       	dec	r23
 df2:	c9 f7       	brne	.-14     	; 0xde6 <__udivmodqi4_loop>
 df4:	80 95       	com	r24
 df6:	08 95       	ret

00000df8 <__tablejump2__>:
 df8:	ee 0f       	add	r30, r30
 dfa:	ff 1f       	adc	r31, r31
 dfc:	05 90       	lpm	r0, Z+
 dfe:	f4 91       	lpm	r31, Z
 e00:	e0 2d       	mov	r30, r0
 e02:	09 94       	ijmp

00000e04 <itoa>:
 e04:	45 32       	cpi	r20, 0x25	; 37
 e06:	51 05       	cpc	r21, r1
 e08:	20 f4       	brcc	.+8      	; 0xe12 <itoa+0xe>
 e0a:	42 30       	cpi	r20, 0x02	; 2
 e0c:	10 f0       	brcs	.+4      	; 0xe12 <itoa+0xe>
 e0e:	0c 94 0d 07 	jmp	0xe1a	; 0xe1a <__itoa_ncheck>
 e12:	fb 01       	movw	r30, r22
 e14:	10 82       	st	Z, r1
 e16:	cb 01       	movw	r24, r22
 e18:	08 95       	ret

00000e1a <__itoa_ncheck>:
 e1a:	bb 27       	eor	r27, r27
 e1c:	4a 30       	cpi	r20, 0x0A	; 10
 e1e:	31 f4       	brne	.+12     	; 0xe2c <__itoa_ncheck+0x12>
 e20:	99 23       	and	r25, r25
 e22:	22 f4       	brpl	.+8      	; 0xe2c <__itoa_ncheck+0x12>
 e24:	bd e2       	ldi	r27, 0x2D	; 45
 e26:	90 95       	com	r25
 e28:	81 95       	neg	r24
 e2a:	9f 4f       	sbci	r25, 0xFF	; 255
 e2c:	0c 94 19 07 	jmp	0xe32	; 0xe32 <__utoa_common>

00000e30 <__utoa_ncheck>:
 e30:	bb 27       	eor	r27, r27

00000e32 <__utoa_common>:
 e32:	fb 01       	movw	r30, r22
 e34:	55 27       	eor	r21, r21
 e36:	aa 27       	eor	r26, r26
 e38:	88 0f       	add	r24, r24
 e3a:	99 1f       	adc	r25, r25
 e3c:	aa 1f       	adc	r26, r26
 e3e:	a4 17       	cp	r26, r20
 e40:	10 f0       	brcs	.+4      	; 0xe46 <__utoa_common+0x14>
 e42:	a4 1b       	sub	r26, r20
 e44:	83 95       	inc	r24
 e46:	50 51       	subi	r21, 0x10	; 16
 e48:	b9 f7       	brne	.-18     	; 0xe38 <__utoa_common+0x6>
 e4a:	a0 5d       	subi	r26, 0xD0	; 208
 e4c:	aa 33       	cpi	r26, 0x3A	; 58
 e4e:	08 f0       	brcs	.+2      	; 0xe52 <__utoa_common+0x20>
 e50:	a9 5d       	subi	r26, 0xD9	; 217
 e52:	a1 93       	st	Z+, r26
 e54:	00 97       	sbiw	r24, 0x00	; 0
 e56:	79 f7       	brne	.-34     	; 0xe36 <__utoa_common+0x4>
 e58:	b1 11       	cpse	r27, r1
 e5a:	b1 93       	st	Z+, r27
 e5c:	11 92       	st	Z+, r1
 e5e:	cb 01       	movw	r24, r22
 e60:	0c 94 32 07 	jmp	0xe64	; 0xe64 <strrev>

00000e64 <strrev>:
 e64:	dc 01       	movw	r26, r24
 e66:	fc 01       	movw	r30, r24
 e68:	67 2f       	mov	r22, r23
 e6a:	71 91       	ld	r23, Z+
 e6c:	77 23       	and	r23, r23
 e6e:	e1 f7       	brne	.-8      	; 0xe68 <strrev+0x4>
 e70:	32 97       	sbiw	r30, 0x02	; 2
 e72:	04 c0       	rjmp	.+8      	; 0xe7c <strrev+0x18>
 e74:	7c 91       	ld	r23, X
 e76:	6d 93       	st	X+, r22
 e78:	70 83       	st	Z, r23
 e7a:	62 91       	ld	r22, -Z
 e7c:	ae 17       	cp	r26, r30
 e7e:	bf 07       	cpc	r27, r31
 e80:	c8 f3       	brcs	.-14     	; 0xe74 <strrev+0x10>
 e82:	08 95       	ret

00000e84 <_exit>:
 e84:	f8 94       	cli

00000e86 <__stop_program>:
 e86:	ff cf       	rjmp	.-2      	; 0xe86 <__stop_program>
